Asm994a TMS99000 Assembler - v3.008

   1            ***************************************************************
   2            * Honeycomb Rapture - (c) 2010 by Owen Brand
   3            *
   4            * Cartridge conversion by Retroclouds
   5            *
   6            * This file: hc.a99
   7            ***************************************************************
   8            * Main program
   9            ********@*****@*********************@**************************
  10                    AORG  >6000
  11            *--------------------------------------------------------------
  12            * Cartridge header
  13            *--------------------------------------------------------------
  14  6000 AA01 GRMHDR  BYTE  >AA,1,1,0,0,0
  14  6002 0100  
  14  6004 0000  
  15  6006 6010         DATA  PROG
  16  6008 0000         BYTE  0,0,0,0,0,0,0,0
  16  600A 0000  
  16  600C 0000  
  16  600E 0000  
  17  6010 0000 PROG    DATA  0
  18  6012 6A0A         DATA  RUNLIB
  19  6014 11           BYTE  17
  20  6015 484F         TEXT  'HONEYCOMB RAPTURE'
  20  6017 4E45  
  20  6019 5943  
  20  601B 4F4D  
  20  601D 4220  
  20  601F 5241  
  20  6021 5054  
  20  6023 5552  
  20  6025 45    
  21            *--------------------------------------------------------------
  22            * Include required files
  23            *--------------------------------------------------------------
  24  Level [b] *       COPY    'D:\Projekte\spectra2\tms9900\runlib.a99'
   1b           ***************************************************************
   2b           *                           SPECTRA2 
   3b           *                      Arcade Game Library 
   4b           *                             for
   5b           *               the Texas Instruments TI-99/4A  
   6b           *                2010-2011 by Filip Van Vooren
   7b           ***************************************************************
   8b           * Special thanks to Mark Wills, Mathew Hagerty & sometimes99er
   9b           * 
  10b           * 1) Speech code based on version of Mark Wills.
  11b           * 2) Fat font style based on work of sometimes99er.
  12b           * 2) Number conversion based on work of Mathew Hagerty.
  13b           ***************************************************************
  14b           * This file: runlib.a99
  15b           ***************************************************************
  16b           * v1.0    2011/02   Initial version
  17b           * v1.1    2011/03   Bug-fix by trev2005: YX2PYX register issue
  18b           ***************************************************************
  19b           * Open issues
  20b           * - There is a bug in PUTBOX that causes an additional byte >00
  21b           *   written to the VDP if the last character of the box is
  22b           *   is drawn.
  23b           ***************************************************************
  24b           
  25b           
  26b            
  27b           *//////////////////////////////////////////////////////////////
  28b           *                       RUNLIB MEMORY SETUP
  29b           *//////////////////////////////////////////////////////////////
  30b           
  31b           * Equates and Memory setup ..:
  32b           ***************************************************************
  33b           * >8300 - >833A     Scratchpad memory layout
  34b           ********@*****@*********************@**************************
  35b 0000 8300 WS1     EQU   >8300                 ; 32 - Primary workspace
  36b 0000 8320 MCLOOP  EQU   >8320                 ; 08 - Machine code for loop & speech
  37b 0000 8328 WBASE   EQU   >8328                 ; 02 - PNT base address
  38b 0000 832A WYX     EQU   >832A                 ; 02 - Cursor YX position
  39b 0000 832C WTITAB  EQU   >832C                 ; 02 - Timers: Address of timer table
  40b 0000 832E WTIUSR  EQU   >832E                 ; 02 - Timers: Address of user hook
  41b 0000 8330 WTITMP  EQU   >8330                 ; 02 - Timers: Internal use
  42b 0000 8332 WVRTKB  EQU   >8332                 ; 02 - Virtual keyboard flags
  43b 0000 8334 WSDLST  EQU   >8334                 ; 02 - Sound player: Tune address
  44b 0000 8336 WSDTMP  EQU   >8336                 ; 02 - Sound player: Temporary use
  45b 0000 8338 WSPEAK  EQU   >8338                 ; 02 - Speech player: Address of LPC data
  46b 0000 833A WSEED   EQU   >833A                 ; 02 - Seed for random subroutine
  47b 0000 833C WCOLMN  EQU   >833C                 ; 02 - Screen size, columns per row
  48b 0000 833E WASCKB  EQU   >833E                 ; 02 - Real keyboard: ASCII value of key
  49b           ***************************************************************
  50b 0000 832A BY      EQU   WYX                   ;      Cursor Y position
  51b 0000 832B BX      EQU   WYX+1                 ;      Cursor X position
  52b 0000 8322 MCSPRD  EQU   MCLOOP+2              ;      Speech read routine
  53b           ***************************************************************
  54b           * Register usage
  55b           * R0-R3   General purpose registers
  56b           * R4-R8   Temporary registers
  57b           * R9      Stack pointer
  58b           * R10     Highest slot in use + Timer counter
  59b           * R11     Subroutine return address
  60b           * R12     Configuration register
  61b           * R13     Copy of VDP status byte and counter for sound player
  62b           * R14     Copy of VDP register #0 and VDP register #1 bytes
  63b           * R15     VDP read/write address
  64b           ***************************************************************
  65b           * Workspace and register equates
  66b           ********@*****@*********************@**************************
  67b 0000 0000 R0      EQU   0
  68b 0000 0001 R1      EQU   1
  69b 0000 0002 R2      EQU   2
  70b 0000 0003 R3      EQU   3
  71b 0000 0004 R4      EQU   4
  72b 0000 0005 R5      EQU   5
  73b 0000 0006 R6      EQU   6
  74b 0000 0007 R7      EQU   7
  75b 0000 0008 R8      EQU   8
  76b 0000 0009 R9      EQU   9
  77b 0000 000A R10     EQU   10
  78b 0000 000B R11     EQU   11
  79b 0000 000C R12     EQU   12
  80b 0000 000D R13     EQU   13
  81b 0000 000E R14     EQU   14
  82b 0000 000F R15     EQU   15
  83b 0000 8300 R0HB    EQU   WS1                   ; HI byte R0
  84b 0000 8301 R0LB    EQU   WS1+1                 ; LO byte R0
  85b 0000 8302 R1HB    EQU   WS1+2                 ; HI byte R1
  86b 0000 8303 R1LB    EQU   WS1+3                 ; LO byte R1
  87b 0000 8304 R2HB    EQU   WS1+4                 ; HI byte R2
  88b 0000 8305 R2LB    EQU   WS1+5                 ; LO byte R2
  89b 0000 8306 R3HB    EQU   WS1+6                 ; HI byte R3
  90b 0000 8307 R3LB    EQU   WS1+7                 ; LO byte R3
  91b 0000 8308 R4HB    EQU   WS1+8                 ; HI byte R4
  92b 0000 8309 R4LB    EQU   WS1+9                 ; LO byte R4
  93b 0000 830A R5HB    EQU   WS1+10                ; HI byte R5
  94b 0000 830B R5LB    EQU   WS1+11                ; LO byte R5
  95b 0000 830C R6HB    EQU   WS1+12                ; HI byte R6
  96b 0000 830D R6LB    EQU   WS1+13                ; LO byte R6
  97b 0000 830E R7HB    EQU   WS1+14                ; HI byte R7
  98b 0000 830F R7LB    EQU   WS1+15                ; LO byte R7
  99b 0000 8310 R8HB    EQU   WS1+16                ; HI byte R8
 100b 0000 8311 R8LB    EQU   WS1+17                ; LO byte R8
 101b 0000 8312 R9HB    EQU   WS1+18                ; HI byte R9
 102b 0000 8313 R9LB    EQU   WS1+19                ; LO byte R9
 103b 0000 8314 R10HB   EQU   WS1+20                ; HI byte R10
 104b 0000 8315 R10LB   EQU   WS1+21                ; LO byte R10
 105b 0000 8316 R11HB   EQU   WS1+22                ; HI byte R11
 106b 0000 8317 R11LB   EQU   WS1+23                ; LO byte R11
 107b 0000 8318 R12HB   EQU   WS1+24                ; HI byte R12
 108b 0000 8319 R12LB   EQU   WS1+25                ; LO byte R12
 109b 0000 831A R13HB   EQU   WS1+26                ; HI byte R13
 110b 0000 831B R13LB   EQU   WS1+27                ; LO byte R13
 111b 0000 831C R14HB   EQU   WS1+28                ; HI byte R14
 112b 0000 831D R14LB   EQU   WS1+29                ; LO byte R14
 113b 0000 831E R15HB   EQU   WS1+30                ; HI byte R15
 114b 0000 831F R15LB   EQU   WS1+31                ; LO byte R15
 115b 0000 0004 TMP0    EQU   R4                    ; Temp register 0
 116b 0000 0005 TMP1    EQU   R5                    ; Temp register 1
 117b 0000 0006 TMP2    EQU   R6                    ; Temp register 2
 118b 0000 0007 TMP3    EQU   R7                    ; Temp register 3
 119b 0000 0008 TMP4    EQU   R8                    ; Temp register 4
 120b 0000 0009 TMP5    EQU   R9                    ; Temp register 5
 121b 0000 000F TMP6    EQU   R15                   ; Temp register 6
 122b 0000 8308 TMP0HB  EQU   WS1+8                 ; HI byte R4
 123b 0000 8309 TMP0LB  EQU   WS1+9                 ; LO byte R4
 124b 0000 830A TMP1HB  EQU   WS1+10                ; HI byte R5
 125b 0000 830B TMP1LB  EQU   WS1+11                ; LO byte R5
 126b 0000 830C TMP2HB  EQU   WS1+12                ; HI byte R6
 127b 0000 830D TMP2LB  EQU   WS1+13                ; LO byte R6
 128b 0000 830E TMP3HB  EQU   WS1+14                ; HI byte R7
 129b 0000 830F TMP3LB  EQU   WS1+15                ; LO byte R7
 130b 0000 8310 TMP4HB  EQU   WS1+16                ; HI byte R8
 131b 0000 8311 TMP4LB  EQU   WS1+17                ; LO byte R8
 132b 0000 8310 TMP5HB  EQU   WS1+16                ; HI byte R8
 133b 0000 8311 TMP5LB  EQU   WS1+17                ; LO byte R8
 134b 0000 831E TMP6HB  EQU   WS1+30                ; HI byte R15
 135b 0000 831F TMP6LB  EQU   WS1+31                ; LO byte R15
 136b           ***************************************************************
 137b           * Equates for VDP, GROM, SOUND, SPEECH ports
 138b           ********@*****@*********************@**************************
 139b 0000 8400 SOUND   EQU   >8400                 ; Sound generator address
 140b 0000 8800 VDPR    EQU   >8800                 ; VDP read data window address
 141b 0000 8C00 VDPW    EQU   >8C00                 ; VDP write data window address
 142b 0000 8802 VDPS    EQU   >8802                 ; VDP status register
 143b 0000 8C02 VDPA    EQU   >8C02                 ; VDP address register
 144b 0000 9C02 GRMWA   EQU   >9C02                 ; GROM set write address
 145b 0000 9802 GRMRA   EQU   >9802                 ; GROM set read address
 146b 0000 9800 GRMRD   EQU   >9800                 ; GROM read byte
 147b 0000 9C00 GRMWD   EQU   >9C00                 ; GROM write byte
 148b 0000 9000 SPCHRD  EQU   >9000                 ; Address of speech synth Read Data Register
 149b 0000 9400 SPCHWT  EQU   >9400                 ; Address of speech synth Write Data Register
 150b           ***************************************************************
 151b           * Equates for registers
 152b           ********@*****@*********************@**************************
 153b 0000 0009 STACK   EQU   R9                    ; Stack pointer
 154b 0000 8314 BTIHI   EQU   WS1+20                ; Highest slot in use (HI byte R10)
 155b 0000 000C CONFIG  EQU   R12                   ; SPECTRA configuration register
 156b 0000 831A BVDPST  EQU   WS1+26                ; Copy of VDP status register (HI byte R13)
 157b 0000 000E VDPR01  EQU   R14                   ; Copy of VDP#0 and VDP#1 bytes
 158b 0000 831C VDPR0   EQU   WS1+28                ; High byte of R14. Is VDP#0 byte
 159b 0000 831D VDPR1   EQU   WS1+29                ; Low byte  of R14. Is VDP#1 byte
 160b 0000 000F VDPRW   EQU   R15                   ; Contains VDP read/write address
 161b           ***************************************************************
 162b           * Equates for memory locations
 163b           ********@*****@*********************@**************************
 164b 0000 832E WRAMF   EQU   >832E                 ; Memory location F
 165b 0000 8338 WRAMK   EQU   >8338                 ; Memory location K
 166b 0000 833A WRAML   EQU   >833A                 ; Memory location L
 167b           ***************************************************************
 168b           * The config register equates
 169b           *--------------------------------------------------------------
 170b           * Configuration flags
 171b           * ===================
 172b           * 
 173b           * ; 15  Sound player: tune source       1=ROM/RAM      0=VDP MEMORY
 174b           * ; 14  Sound player: repeat tune       1=yes          0=no
 175b           * ; 13  Sound player: enabled           1=yes          0=no (or pause)
 176b           * ; 12  Keyboard: mode                  1=real         0=virtual
 177b           * ; 11  Keyboard: ANY key pressed       1=yes          0=no
 178b           * ; 10  TI-99/4A v2.2 OS                1=yes          0=no
 179b           * ; 09  Timer: Kernel thread enabled    1=yes          0=no
 180b           * ; 08  Timer: Block kernel thread      1=yes          0=no     
 181b           * ; 07  Timer: User hook enabled        1=yes          0=no     
 182b           * ; 06  Timer: Block user hook          1=yes          0=no
 183b           * ; 05  speech player: external voice   1=yes          0=no
 184b           * ; 04  Speech player: busy             1=yes          0=no
 185b           * ; 03  Speech player: enabled          1=yes          0=no
 186b           * ; 02  VDP9918 PAL version             1=yes(50)      0=no(60)
 187b           * ; 01  Subroutine state flag 1         1=on           0=off
 188b           * ; 00  Subroutine state flag 0         1=on           0=off
 189b           ********@*****@*********************@**************************
 190b 0000 2000 PALON   EQU   >2000                 ; bit 2=1   (VDP9918 PAL version)
 191b 0000 0100 ENUSR   EQU   >0100                 ; bit 7=1   (Enable user hook)
 192b 0000 0040 ENKNL   EQU   >0040                 ; bit 9=1   (Enable kernel thread)
 193b 0000 0020 V22OS   EQU   >0020                 ; bit 10=1  (TI-99/4A V2.2 OS)
 194b           ***************************************************************
 195b           * Subroutine parameter equates
 196b           ***************************************************************
 197b 0000 FFFF EOL     EQU   >FFFF                 ; End-Of-List
 198b 0000 FFFF NOFONT  EQU   >FFFF                 ; Skip loading font in RUNLIB
 199b 0000 3030 NUM1    EQU   >3030                 ; MKNUM  => ASCII 0-9, leading 0's 
 200b 0000 3020 NUM2    EQU   >3020                 ; MKNUM  => ASCII 0-9, leading spaces
 201b 0000 0007 SDOPT1  EQU   7                     ; SDPLAY => 111 (Player on, repeat, tune in CPU memory)
 202b 0000 0005 SDOPT2  EQU   5                     ; SDPLAY => 101 (Player on, no repeat, tune in CPU memory)
 203b 0000 0006 SDOPT3  EQU   6                     ; SDPLAY => 110 (Player on, repeat, tune in VRAM)
 204b 0000 0004 SDOPT4  EQU   4                     ; SDPLAY => 100 (Player on, no repeat, tune in VRAM)
 205b 0000 0000 FNOPT1  EQU   >0000                 ; LDFNT  => Load TI title screen font
 206b 0000 0006 FNOPT2  EQU   >0006                 ; LDFNT  => Load upper case font
 207b 0000 000C FNOPT3  EQU   >000C                 ; LDFNT  => Load upper/lower case font
 208b 0000 0012 FNOPT4  EQU   >0012                 ; LDFNT  => Load lower case font
 209b 0000 8000 FNOPT5  EQU   >8000                 ; LDFNT  => Load TI title screen font  & make bold
 210b 0000 8006 FNOPT6  EQU   >8006                 ; LDFNT  => Load upper case font       & make bold
 211b 0000 800C FNOPT7  EQU   >800C                 ; LDFNT  => Load upper/lower case font & make bold
 212b 0000 8012 FNOPT8  EQU   >8012                 ; LDFNT  => Load lower case font       & make bold
 213b           *--------------------------------------------------------------
 214b           *   Speech player
 215b           *--------------------------------------------------------------
 216b 0000 1400 SPOPT1  EQU   >1400                 ; 0001010000000000 (Player on, external voice)
 217b 0000 1000 SPOPT2  EQU   >1000                 ; 0001000000000000 (Player on, resident voice)
 218b 0000 0060 TALKON  EQU   >60                   ; 'start talking' command code for speech synth
 219b 0000 00FF TALKOF  EQU   >FF                   ; 'stop talking' command code for speech synth
 220b 0000 6000 SPKON   EQU   >6000                 ; 'start talking' command code for speech synth
 221b 0000 FF00 SPKOFF  EQU   >FF00                 ; 'stop talking' command code for speech synth
 222b           ***************************************************************
 223b           * Virtual keyboard equates
 224b           ***************************************************************
 225b           * ; bit  0: ALPHA LOCK down             0=no  1=yes
 226b           * ; bit  1: ENTER                       0=no  1=yes
 227b           * ; bit  2: REDO                        0=no  1=yes
 228b           * ; bit  3: BACK                        0=no  1=yes
 229b           * ; bit  4: Pause                       0=no  1=yes
 230b           * ; bit  5: *free*                      0=no  1=yes
 231b           * ; bit  6: P1 Left                     0=no  1=yes
 232b           * ; bit  7: P1 Right                    0=no  1=yes
 233b           * ; bit  8: P1 Up                       0=no  1=yes
 234b           * ; bit  9: P1 Down                     0=no  1=yes
 235b           * ; bit 10: P1 Space / fire / Q         0=no  1=yes
 236b           * ; bit 11: P2 Left                     0=no  1=yes
 237b           * ; bit 12: P2 Right                    0=no  1=yes
 238b           * ; bit 13: P2 Up                       0=no  1=yes
 239b           * ; bit 14: P2 Down                     0=no  1=yes
 240b           * ; bit 15: P2 Space / fire / Q         0=no  1=yes
 241b           ***************************************************************
 242b 0000 8000 KALPHA  EQU   >8000                 ; Virtual key alpha lock
 243b 0000 4000 KENTER  EQU   >4000                 ; Virtual key enter
 244b 0000 2000 KREDO   EQU   >2000                 ; Virtual key REDO
 245b 0000 1000 KBACK   EQU   >1000                 ; Virtual key BACK
 246b 0000 0800 KPAUSE  EQU   >0800                 ; Virtual key pause
 247b 0000 0400 KFREE   EQU   >0400                 ; ***NOT USED YET***
 248b           *--------------------------------------------------------------
 249b           * Keyboard Player 1
 250b           *--------------------------------------------------------------
 251b 0000 0280 K1UPLF  EQU   >0280                 ; Virtual key up   + left
 252b 0000 0180 K1UPRG  EQU   >0180                 ; Virtual key up   + right
 253b 0000 0240 K1DNLF  EQU   >0240                 ; Virtual key down + left
 254b 0000 0140 K1DNRG  EQU   >0140                 ; Virtual key down + right
 255b 0000 0200 K1LF    EQU   >0200                 ; Virtual key left
 256b 0000 0100 K1RG    EQU   >0100                 ; Virtual key right
 257b 0000 0080 K1UP    EQU   >0080                 ; Virtual key up
 258b 0000 0040 K1DN    EQU   >0040                 ; Virtual key down
 259b 0000 0020 K1FIRE  EQU   >0020                 ; Virtual key fire
 260b           *--------------------------------------------------------------
 261b           * Keyboard Player 2
 262b           *--------------------------------------------------------------
 263b 0000 0014 K2UPLF  EQU   >0014                 ; Virtual key up   + left
 264b 0000 000C K2UPRG  EQU   >000C                 ; Virtual key up   + right
 265b 0000 0012 K2DNLF  EQU   >0012                 ; Virtual key down + left
 266b 0000 000A K2DNRG  EQU   >000A                 ; Virtual key down + right
 267b 0000 0010 K2LF    EQU   >0010                 ; Virtual key left
 268b 0000 0008 K2RG    EQU   >0008                 ; Virtual key right
 269b 0000 0004 K2UP    EQU   >0004                 ; Virtual key up
 270b 0000 0002 K2DN    EQU   >0002                 ; Virtual key down
 271b 0000 0001 K2FIRE  EQU   >0001                 ; Virtual key fire
 272b           ***************************************************************
 273b           * Misc equates (bank switching, etc.)
 274b           ********@*****@*********************@**************************
 275b 0000 6000 BANK0   EQU   >6000
 276b 0000 6002 BANK1   EQU   >6002
 277b           ***************************************************************
 278b           *                      Some constants
 279b           ********@*****@*********************@**************************
 280b                   EVEN                        ; Just in case
 281b 6026 8000 WBIT0   DATA  >8000                 ; Binary 1000000000000000
 282b 6028 4000 WBIT1   DATA  >4000                 ; Binary 0100000000000000
 283b 602A 2000 WBIT2   DATA  >2000                 ; Binary 0010000000000000
 284b 602C 1000 WBIT3   DATA  >1000                 ; Binary 0001000000000000
 285b 602E 0800 WBIT4   DATA  >0800                 ; Binary 0000100000000000
 286b 6030 0400 WBIT5   DATA  >0400                 ; Binary 0000010000000000
 287b 6032 0200 WBIT6   DATA  >0200                 ; Binary 0000001000000000
 288b 6034 0100 WBIT7   DATA  >0100                 ; Binary 0000000100000000
 289b 6036 0080 WBIT8   DATA  >0080                 ; Binary 0000000010000000
 290b 6038 0040 WBIT9   DATA  >0040                 ; Binary 0000000001000000
 291b 603A 0020 WBIT10  DATA  >0020                 ; Binary 0000000000100000
 292b 603C 0010 WBIT11  DATA  >0010                 ; Binary 0000000000010000
 293b 603E 0008 WBIT12  DATA  >0008                 ; Binary 0000000000001000
 294b 6040 0004 WBIT13  DATA  >0004                 ; Binary 0000000000000100
 295b 6042 0002 WBIT14  DATA  >0002                 ; Binary 0000000000000010
 296b 6044 0001 WBIT15  DATA  >0001                 ; Binary 0000000000000001
 297b 6046 FFFF WHFFFF  DATA  >FFFF                 ; Binary 1111111111111111
 298b 6048 00   BD0     BYTE  0                     ; Digit 0
 299b 6049 01   BD1     BYTE  1                     ; Digit 1
 300b 604A 02   BD2     BYTE  2                     ; Digit 2
 301b 604B 03   BD3     BYTE  3                     ; Digit 3
 302b 604C 04   BD4     BYTE  4                     ; Digit 4
 303b 604D 05   BD5     BYTE  5                     ; Digit 5
 304b 604E 06   BD6     BYTE  6                     ; Digit 6
 305b 604F 07   BD7     BYTE  7                     ; Digit 7
 306b 6050 08   BD8     BYTE  8                     ; Digit 8
 307b 6051 09   BD9     BYTE  9                     ; Digit 9
 308b 6052 D0   BD208   BYTE  208                   ; Digit 208 (>E0)
 309b 6053 0000         EVEN
 310b           *--------------------------------------------------------------
 311b           * The equates for constants
 312b           *--------------------------------------------------------------
 313b 0000 603C ANYKEY  EQU   WBIT11                ; BIT 11 in the CONFIG register
 314b 0000 6026 BBIT0   EQU   WBIT0
 315b 0000 6028 BBIT1   EQU   WBIT1
 316b 0000 602A BBIT2   EQU   WBIT2
 317b 0000 602C BBIT3   EQU   WBIT3
 318b 0000 602E BBIT4   EQU   WBIT4
 319b 0000 6030 BBIT5   EQU   WBIT5
 320b 0000 6032 BBIT6   EQU   WBIT6
 321b 0000 6034 BBIT7   EQU   WBIT7
 322b 0000 603D BH10    EQU   WBIT11+1              ; >10
 323b 0000 603B BH20    EQU   WBIT10+1              ; >20
 324b 0000 6039 BH40    EQU   WBIT9+1               ; >40
 325b 0000 6037 BH80    EQU   WBIT8+1               ; >80
 326b 0000 6034 WH100   EQU   WBIT7                 ; >0100
 327b 0000 6028 WH4000  EQU   WBIT1                 ; >4000   
 328b           
 329b           ***************************************************************
 330b           *                    Video mode tables
 331b           ***************************************************************
 332b           * Graphics mode 1 (32 columns)
 333b           *--------------------------------------------------------------
 334b 6054 00E2 GRAPH1  BYTE  >00,>E2,>00,>0E,>01,>06,>02,SPFBCK,0,32
 334b 6056 000E  
 334b 6058 0106  
 334b 605A 0201  
 334b 605C 0020  
 335b           * ; VDP#0 Control bits
 336b           * ;      bit 6=0: M3 | Graphics 1 mode
 337b           * ;      bit 7=0: Disable external VDP input
 338b           * ; VDP#1 Control bits
 339b           * ;      bit 0=1: 16K selection
 340b           * ;      bit 1=1: Enable display
 341b           * ;      bit 2=1: Enable VDP interrupt
 342b           * ;      bit 3=0: M1 \ Graphics 1 mode
 343b           * ;      bit 4=0: M2 /
 344b           * ;      bit 5=0: reserved
 345b           * ;      bit 6=1: 16x16 sprites
 346b           * ;      bit 7=0: Sprite magnification (1x)
 347b           * ; VDP#2 PNT (Pattern name table)       at >0000  (>00 * >400)
 348b           * ; VDP#3 PCT (Pattern color table)      at >0380  (>0E * >040)
 349b           * ; VDP#4 PDT (Pattern descriptor table) at >0800  (>01 * >800)
 350b           * ; VDP#5 SAT (sprite attribute list)    at >0300  (>06 * >080)
 351b           * ; VDP#6 SPT (Sprite pattern table)     at >0400  (>80 * >008)
 352b           * ; VDP#7 Set screen background color
 353b           ***************************************************************
 354b           * Textmode (40 columns)
 355b           *--------------------------------------------------------------
 356b 605E 00F2 TXTMOD  BYTE  >00,>F2,>00,>0E,>01,>06,>80,SPFCLR,0,40
 356b 6060 000E  
 356b 6062 0106  
 356b 6064 80A0  
 356b 6066 0028  
 357b           * ; VDP#0 Control bits
 358b           * ;      bit 6=0: M3 | Graphics 1 mode
 359b           * ;      bit 7=0: Disable external VDP input
 360b           * ; VDP#1 Control bits
 361b           * ;      bit 0=1: 16K selection
 362b           * ;      bit 1=1: Enable display
 363b           * ;      bit 2=1: Enable VDP interrupt
 364b           * ;      bit 3=1: M1 \ TEXT MODE
 365b           * ;      bit 4=0: M2 /
 366b           * ;      bit 5=0: reserved
 367b           * ;      bit 6=1: 16x16 sprites
 368b           * ;      bit 7=0: Sprite magnification (1x)
 369b           * ; VDP#2 PNT (Pattern name table)       at >0000  (>00 * >400)
 370b           * ; VDP#3 PCT (Pattern color table)      at >0380  (>0E * >040)
 371b           * ; VDP#4 PDT (Pattern descriptor table) at >0800  (>01 * >800)
 372b           * ; VDP#5 SAT (sprite attribute list)    at >0300  (>06 * >080)
 373b           * ; VDP#6 SPT (Sprite pattern table)     at >0400  (>80 * >008)
 374b           * ; VDP#7 Set foreground/background color
 375b           ***************************************************************
 376b           
 377b           
 378b           ***************************************************************
 379b           *                Data used by runtime library
 380b           ********@*****@*********************@**************************
 381b 6068 69B4 KDATA   DATA  KERNEL                ; Address of kernel thread
 382b           *--------------------------------------------------------------
 383b           * ; Machine code for tight loop. 
 384b           * ; The MOV operation at MCLOOP must be injected by the calling routine.
 385b           *--------------------------------------------------------------        
 386b           *       DATA  >????                 ; \ MCLOOP  MOV   ...
 387b 606A 0606 MCCODE  DATA  >0606                 ; |         DEC   R6 (TMP2)
 388b 606C 16FD         DATA  >16FD                 ; |         JNE   MCLOOP
 389b 606E 045B         DATA  >045B                 ; /         B     *R11
 390b           *--------------------------------------------------------------
 391b           * ; Machine code for reading from the speech synthesizer
 392b           * ; The SRC instruction takes 12 uS for execution in scratchpad RAM.
 393b           * ; Is required for the 12 uS delay. It destroys R5.
 394b           *--------------------------------------------------------------   
 395b 6070 D114 SPCODE  DATA  >D114                 ; \         MOVB  *R4,R4 (TMP0)
 396b 6072 0BC5         DATA  >0BC5                 ; /         SRC   R5,12  (TMP1)
 397b                   EVEN
 398b           *:..
 399b           
 400b                        
 401b           *//////////////////////////////////////////////////////////////
 402b           *                     FILL & COPY FUNCTIONS
 403b           *//////////////////////////////////////////////////////////////
 404b           
 405b           
 406b           * FILM   (DATA P0,P1,P2) / XFILM ..:
 407b           ***************************************************************
 408b           * FILM - Fill CPU memory with byte
 409b           ***************************************************************
 410b           *  BL   @FILM
 411b           *  DATA P0,P1,P2
 412b           *--------------------------------------------------------------
 413b           *  P0 = Memory start address
 414b           *  P1 = Byte to fill
 415b           *  P2 = Number of bytes to fill
 416b           *--------------------------------------------------------------
 417b           *  BL   @XFILM
 418b           *
 419b           *  TMP0 = Memory start address
 420b           *  TMP1 = Byte to fill
 421b           *  TMP2 = Number of bytes to fill
 422b           ********@*****@*********************@**************************
 423b 6074 C13B FILM    MOV   *R11+,TMP0            ; Memory start
 424b 6076 C17B         MOV   *R11+,TMP1            ; Byte to fill
 425b 6078 C1BB         MOV   *R11+,TMP2            ; Repeat count        
 426b           *--------------------------------------------------------------
 427b           * Fill memory with 16 bit words
 428b           *--------------------------------------------------------------              
 429b 607A C1C6 XFILM   MOV   TMP2,TMP3
 430b 607C 0247         ANDI  TMP3,1                ; TMP3=1 -> ODD else EVEN
 430b 607E 0001  
 431b 6080 1301         JEQ   FILM1
 432b 6082 0606         DEC   TMP2                  ; Make TMP2 even        
 433b 6084 D820 FILM1   MOVB  @TMP1LB,@TMP1HB       ; Duplicate value    
 433b 6086 830B  
 433b 6088 830A  
 434b 608A CD05 FILM2   MOV   TMP1,*TMP0+
 435b 608C 0646         DECT  TMP2
 436b 608E 16FD         JNE   FILM2
 437b           *--------------------------------------------------------------
 438b           * Fill last byte if ODD
 439b           *--------------------------------------------------------------          
 440b 6090 C1C7         MOV   TMP3,TMP3
 441b 6092 1301         JEQ   FILMZ
 442b 6094 D505         MOVB  TMP1,*TMP0
 443b 6096 045B FILMZ   B     *R11
 444b           * :..
 445b           
 446b           * FILV   (DATA P0,P1,P2) / XFILV ..:
 447b           ***************************************************************
 448b           * FILV - Fill VRAM with byte
 449b           ***************************************************************
 450b           *  BL   @FILV
 451b           *  DATA P0,P1,P2
 452b           *--------------------------------------------------------------
 453b           *  P0 = VDP start address
 454b           *  P1 = Byte to fill
 455b           *  P2 = Number of bytes to fill
 456b           *--------------------------------------------------------------
 457b           *  BL   @XFILV
 458b           *
 459b           *  TMP0 = VDP start address
 460b           *  TMP1 = Byte to fill
 461b           *  TMP2 = Number of bytes to fill
 462b           ********@*****@*********************@**************************
 463b 6098 C13B FILV    MOV   *R11+,TMP0            ; Memory start
 464b 609A C17B         MOV   *R11+,TMP1            ; Byte to fill
 465b 609C C1BB         MOV   *R11+,TMP2            ; Repeat count        
 466b           *--------------------------------------------------------------
 467b           *    Setup VDP write address
 468b           *--------------------------------------------------------------
 469b 609E 0264 XFILV   ORI   TMP0,>4000
 469b 60A0 4000  
 470b 60A2 06C4         SWPB  TMP0
 471b 60A4 D804         MOVB  TMP0,@VDPA
 471b 60A6 8C02  
 472b 60A8 06C4         SWPB  TMP0
 473b 60AA D804         MOVB  TMP0,@VDPA
 473b 60AC 8C02  
 474b           *--------------------------------------------------------------
 475b           *    Fill bytes in VDP memory
 476b           *--------------------------------------------------------------   
 477b 60AE 020F         LI    R15,VDPW              ; Set VDP write address     
 477b 60B0 8C00  
 478b 60B2 06C5         SWPB  TMP1
 479b 60B4 C820         MOV   @FILZZ,@MCLOOP        ; Setup move command
 479b 60B6 60BE  
 479b 60B8 8320  
 480b 60BA 0460         B     @MCLOOP               ; Write data to VDP
 480b 60BC 8320  
 481b 60BE D7C5 FILZZ   DATA  >D7C5                 ; MOVB TMP1,*R15
 482b           *:..
 483b           
 484b           * CPYM2M (DATA P0,P1,P2) / XPYM2M ..:
 485b           ***************************************************************
 486b           * CPYM2M - Copy CPU memory to CPU memory
 487b           ***************************************************************
 488b           *  BL   @CPYM2M
 489b           *  DATA P0,P1,P2
 490b           *--------------------------------------------------------------
 491b           *  P0 = Memory source address
 492b           *  P1 = Memory target address
 493b           *  P2 = Number of bytes to copy
 494b           *--------------------------------------------------------------
 495b           *  BL @XPYM2M
 496b           *
 497b           *  TMP0 = Memory source address
 498b           *  TMP1 = Memory target address
 499b           *  TMP2 = Number of bytes to copy
 500b           ********@*****@*********************@**************************
 501b 60C0 C13B CPYM2M  MOV   *R11+,TMP0            ; Memory source address
 502b 60C2 C17B         MOV   *R11+,TMP1            ; Memory target address
 503b 60C4 C1BB         MOV   *R11+,TMP2            ; Number of bytes to copy        
 504b           *--------------------------------------------------------------
 505b           * Do some checks first
 506b           *-------------------------------------------------------------- 
 507b 60C6 024C XPYM2M  ANDI  CONFIG,>7FFF          ; Clear CONFIG bit 0
 507b 60C8 7FFF  
 508b 60CA C1C4         MOV   TMP0,TMP3
 509b 60CC 0247         ANDI  TMP3,1        
 509b 60CE 0001  
 510b 60D0 1618         JNE   CPYODD                ; Odd source address handling      
 511b 60D2 C1C5 CPYM1   MOV   TMP1,TMP3
 512b 60D4 0247         ANDI  TMP3,1        
 512b 60D6 0001  
 513b 60D8 1614         JNE   CPYODD                ; Odd target address handling      
 514b           *--------------------------------------------------------------
 515b           * 8 bit copy 
 516b           *-------------------------------------------------------------- 
 517b 60DA 2320 CPYM2   COC   @WBIT0,CONFIG         ; CONFIG bit 0 set ?
 517b 60DC 6026  
 518b 60DE 1605         JNE   CPYM3   
 519b 60E0 C820         MOV   @TMP011,@MCLOOP       ; Setup byte copy command
 519b 60E2 6108  
 519b 60E4 8320  
 520b 60E6 0460         B     @MCLOOP               ; Copy memory and exit
 520b 60E8 8320  
 521b           *--------------------------------------------------------------
 522b           * 16 bit copy
 523b           *--------------------------------------------------------------              
 524b 60EA C1C6 CPYM3   MOV   TMP2,TMP3
 525b 60EC 0247         ANDI  TMP3,1                ; TMP3=1 -> ODD else EVEN
 525b 60EE 0001  
 526b 60F0 1301         JEQ   CPYM4
 527b 60F2 0606         DEC   TMP2                  ; Make TMP2 even        
 528b 60F4 CD74 CPYM4   MOV   *TMP0+,*TMP1+
 529b 60F6 0646         DECT  TMP2
 530b 60F8 16FD         JNE   CPYM4
 531b           *--------------------------------------------------------------
 532b           * Copy last byte if ODD
 533b           *--------------------------------------------------------------          
 534b 60FA C1C7         MOV   TMP3,TMP3
 535b 60FC 1301         JEQ   CPYMZ
 536b 60FE D554         MOVB  *TMP0,*TMP1                
 537b 6100 045B CPYMZ   B     *R11
 538b           *--------------------------------------------------------------
 539b           * Handle odd source/target address
 540b           *--------------------------------------------------------------         
 541b 6102 026C CPYODD  ORI   CONFIG,>8000        ; Set CONFIG bot 0
 541b 6104 8000  
 542b 6106 10E9         JMP   CPYM2
 543b 6108 DD74 TMP011  DATA  >DD74               ; MOVB *TMP0+,*TMP1+        
 544b           
 545b                   
 546b           * :.. 
 547b           
 548b           * CPYM2V (DATA P0,P1,P2) / XPYM2V ..:
 549b           ***************************************************************
 550b           * CPYM2V - Copy CPU memory to VRAM
 551b           ***************************************************************
 552b           *  BL   @CPYM2V
 553b           *  DATA P0,P1,P2
 554b           *--------------------------------------------------------------
 555b           *  P0 = VDP start address
 556b           *  P1 = RAM/ROM start address
 557b           *  P2 = Number of bytes to copy
 558b           *--------------------------------------------------------------
 559b           *  BL @XPYM2V
 560b           *
 561b           *  TMP0 = VDP start address
 562b           *  TMP1 = RAM/ROM start address
 563b           *  TMP2 = Number of bytes to copy
 564b           ********@*****@*********************@**************************
 565b 610A C13B CPYM2V  MOV   *R11+,TMP0            ; VDP Start address
 566b 610C C17B         MOV   *R11+,TMP1            ; RAM/ROM start address
 567b 610E C1BB         MOV   *R11+,TMP2            ; Bytes to copy   
 568b           *--------------------------------------------------------------
 569b           *    Setup VDP write address
 570b           *--------------------------------------------------------------        
 571b 6110 0264 XPYM2V  ORI   TMP0,>4000
 571b 6112 4000  
 572b 6114 06C4         SWPB  TMP0
 573b 6116 D804         MOVB  TMP0,@VDPA
 573b 6118 8C02  
 574b 611A 06C4         SWPB  TMP0
 575b 611C D804         MOVB  TMP0,@VDPA
 575b 611E 8C02  
 576b           *--------------------------------------------------------------
 577b           *    Copy bytes from CPU memory to VRAM
 578b           *--------------------------------------------------------------                       
 579b 6120 020F         LI    R15,VDPW              ; Set VDP write address
 579b 6122 8C00  
 580b 6124 C820         MOV   @TMP008,@MCLOOP       ; Setup copy command
 580b 6126 612E  
 580b 6128 8320  
 581b 612A 0460         B     @MCLOOP               ; Write data to VDP
 581b 612C 8320  
 582b 612E D7F5 TMP008  DATA  >D7F5                 ; MOVB *TMP1+,*R15        
 583b           *:..
 584b           
 585b           * CPYV2M (DATA P0,P1,P2) / XPYV2M ..:
 586b           ***************************************************************
 587b           * CPYV2M - Copy VRAM to CPU memory
 588b           ***************************************************************
 589b           *  BL @CPYV2M
 590b           *  DATA P0,P1,P2
 591b           *--------------------------------------------------------------
 592b           *  P0 = VDP source address
 593b           *  P1 = RAM target address
 594b           *  P2 = Number of bytes to copy
 595b           *--------------------------------------------------------------
 596b           *  BL @XPYV2M
 597b           *
 598b           *  TMP0 = VDP source address
 599b           *  TMP1 = RAM target address
 600b           *  TMP2 = Number of bytes to copy
 601b           ********@*****@*********************@**************************
 602b 6130 C13B CPYV2M  MOV   *R11+,TMP0            ; VDP source address
 603b 6132 C17B         MOV   *R11+,TMP1            ; Target address in RAM
 604b 6134 C1BB         MOV   *R11+,TMP2            ; Bytes to copy
 605b           *--------------------------------------------------------------
 606b           *    Setup VDP read address
 607b           *--------------------------------------------------------------    
 608b 6136 06C4 XPYV2M  SWPB  TMP0
 609b 6138 D804         MOVB  TMP0,@VDPA
 609b 613A 8C02  
 610b 613C 06C4         SWPB  TMP0
 611b 613E D804         MOVB  TMP0,@VDPA
 611b 6140 8C02  
 612b           *--------------------------------------------------------------
 613b           *    Copy bytes from VDP memory to RAM
 614b           *--------------------------------------------------------------          
 615b 6142 020F         LI    R15,VDPR              ; Set VDP read address
 615b 6144 8800  
 616b 6146 C820         MOV   @TMP007,@MCLOOP       ; Setup copy command
 616b 6148 6150  
 616b 614A 8320  
 617b 614C 0460         B     @MCLOOP               ; Read data from VDP
 617b 614E 8320  
 618b 6150 DD5F TMP007  DATA  >DD5F                 ; MOVB *R15,*TMP+        
 619b           *:..
 620b           
 621b           * CPYG2M (DATA P0,P1,P2) / XPYG2M ..:
 622b           ***************************************************************
 623b           * CPYG2M - Copy GROM memory to CPU memory
 624b           ***************************************************************
 625b           *  BL @CPYG2M
 626b           *  DATA P0,P1,P2
 627b           *--------------------------------------------------------------
 628b           *  P0 = GROM source address
 629b           *  P1 = CPU target address
 630b           *  P2 = Number of bytes to copy
 631b           *--------------------------------------------------------------
 632b           *  BL @CPYG2M
 633b           *
 634b           *  TMP0 = GROM source address
 635b           *  TMP1 = CPU target address
 636b           *  TMP2 = Number of bytes to copy
 637b           ********@*****@*********************@**************************
 638b 6152 C13B CPYG2M  MOV   *R11+,TMP0            ; Memory source address
 639b 6154 C17B         MOV   *R11+,TMP1            ; Memory target address
 640b 6156 C1BB         MOV   *R11+,TMP2            ; Number of bytes to copy
 641b           *--------------------------------------------------------------
 642b           * Setup GROM source address
 643b           *--------------------------------------------------------------
 644b 6158 D804 XPYG2M  MOVB  TMP0,@GRMWA
 644b 615A 9C02  
 645b 615C 06C4         SWPB  TMP0
 646b 615E D804         MOVB  TMP0,@GRMWA                  
 646b 6160 9C02  
 647b           *--------------------------------------------------------------
 648b           *    Copy bytes from GROM to CPU memory
 649b           *--------------------------------------------------------------                       
 650b 6162 0204         LI    TMP0,GRMRD            ; Set TMP0 to GROM data port
 650b 6164 9800  
 651b 6166 C820         MOV   @TMP003,@MCLOOP       ; Setup copy command
 651b 6168 6170  
 651b 616A 8320  
 652b 616C 0460         B     @MCLOOP               ; Copy bytes
 652b 616E 8320  
 653b 6170 DD54 TMP003  DATA  >DD54                 ; MOVB *TMP0,*TMP1+
 654b           *:..        
 655b                             
 656b           * CPYG2V (DATA P0,P1,P2) / XPYG2V ..:
 657b           ***************************************************************
 658b           * CPYG2V - Copy GROM memory to VRAM memory
 659b           ***************************************************************
 660b           *  BL @CPYG2V
 661b           *  DATA P0,P1,P2
 662b           *--------------------------------------------------------------
 663b           *  P0 = GROM source address
 664b           *  P1 = VDP target address
 665b           *  P2 = Number of bytes to copy
 666b           *--------------------------------------------------------------
 667b           *  BL @CPYG2V
 668b           *
 669b           *  TMP0 = GROM source address
 670b           *  TMP1 = VDP target address
 671b           *  TMP2 = Number of bytes to copy
 672b           ********@*****@*********************@**************************
 673b 6172 C13B CPYG2V  MOV   *R11+,TMP0            ; Memory source address
 674b 6174 C17B         MOV   *R11+,TMP1            ; Memory target address
 675b 6176 C1BB         MOV   *R11+,TMP2            ; Number of bytes to copy
 676b           *--------------------------------------------------------------
 677b           * Setup GROM source address
 678b           *--------------------------------------------------------------
 679b 6178 D804 XPYG2V  MOVB  TMP0,@GRMWA
 679b 617A 9C02  
 680b 617C 06C4         SWPB  TMP0
 681b 617E D804         MOVB  TMP0,@GRMWA                  
 681b 6180 9C02  
 682b           *--------------------------------------------------------------
 683b           * Setup VDP target address
 684b           *--------------------------------------------------------------
 685b 6182 0265         ORI   TMP1,>4000
 685b 6184 4000  
 686b 6186 06C5         SWPB  TMP1
 687b 6188 D805         MOVB  TMP1,@VDPA
 687b 618A 8C02  
 688b 618C 06C5         SWPB  TMP1
 689b 618E D805         MOVB  TMP1,@VDPA            ; Set VDP target address
 689b 6190 8C02  
 690b           *--------------------------------------------------------------
 691b           *    Copy bytes from GROM to VDP memory
 692b           *--------------------------------------------------------------                       
 693b 6192 0207         LI    TMP3,GRMRD            ; Set TMP3 to GROM data port
 693b 6194 9800  
 694b 6196 020F         LI    R15,VDPW              ; Set VDP write address
 694b 6198 8C00  
 695b 619A C820         MOV   @TMP002,@MCLOOP       ; Setup copy command
 695b 619C 61A4  
 695b 619E 8320  
 696b 61A0 0460         B     @MCLOOP               ; Copy bytes
 696b 61A2 8320  
 697b 61A4 D7D7 TMP002  DATA  >D7D7                 ; MOVB *TMP3,*R15        
 698b           *:..
 699b           
 700b           
 701b           *//////////////////////////////////////////////////////////////
 702b           *                      VDP LOW LEVEL FUNCTIONS
 703b           *//////////////////////////////////////////////////////////////
 704b           
 705b           * VDWA   () / VDRA () ..:
 706b           ***************************************************************
 707b           * VDWA / VDRA - Setup VDP write or read address
 708b           ***************************************************************
 709b           *  BL   @VDWA
 710b           *
 711b           *  TMP0 = VDP destination address for write
 712b           *--------------------------------------------------------------
 713b           *  BL   @VDRA
 714b           *
 715b           *  TMP0 = VDP source address for read
 716b           ********@*****@*********************@**************************
 717b 61A6 0264 VDWA    ORI   TMP0,>4000            ; Prepare VDP address for write
 717b 61A8 4000  
 718b 61AA 06C4 VDRA    SWPB  TMP0
 719b 61AC D804         MOVB  TMP0,@VDPA
 719b 61AE 8C02  
 720b 61B0 06C4         SWPB  TMP0
 721b 61B2 D804         MOVB  TMP0,@VDPA            ; Set VDP address
 721b 61B4 8C02  
 722b 61B6 045B         B     *R11
 723b           * :..
 724b           
 725b           * VPUTB  (DATA P0, P1) / XVPUTB ..:
 726b           ***************************************************************
 727b           * VPUTB - VDP put single byte
 728b           ***************************************************************
 729b           *  BL @VPUTB
 730b           *  DATA P0,P1
 731b           *--------------------------------------------------------------
 732b           *  P0 = VDP target address
 733b           *  P1 = Byte to write
 734b           ********@*****@*********************@**************************
 735b 61B8 C13B VPUTB   MOV   *R11+,TMP0            ; Get VDP target address
 736b 61BA C17B         MOV   *R11+,TMP1
 737b 61BC C18B XVPUTB  MOV   R11,TMP2              ; Save R11
 738b 61BE 06A0         BL    @VDWA                 ; Set VDP write address
 738b 61C0 61A6  
 739b 61C2 06C5         SWPB  TMP1                  ; Get byte to write
 740b 61C4 D7C5         MOVB  TMP1,*R15             ; Write byte
 741b 61C6 0456         B     *TMP2                 ; Exit
 742b           *:..        
 743b           
 744b           * VGETB  (DATA P0) / XVGETB ..:
 745b           ***************************************************************
 746b           * VGETB - VDP get single byte
 747b           ***************************************************************
 748b           *  BL @VGETB
 749b           *  DATA P0
 750b           *--------------------------------------------------------------
 751b           *  P0 = VDP source address
 752b           ********@*****@*********************@**************************
 753b 61C8 C13B VGETB   MOV   *R11+,TMP0            ; Get VDP source address
 754b 61CA C18B XVGETB  MOV   R11,TMP2              ; Save R11
 755b 61CC 06A0         BL    @VDRA                 ; Set VDP read address
 755b 61CE 61AA  
 756b 61D0 D120         MOVB  @VDPR,TMP0            ; Read byte
 756b 61D2 8800  
 757b 61D4 0984         SRL   TMP0,8                ; Right align
 758b 61D6 0456         B     *TMP2                 ; Exit
 759b           *:..
 760b                   
 761b           * VIDTAB (DATA P0) / XIDTAB ..:
 762b           ***************************************************************
 763b           * VIDTAB - Dump videomode table
 764b           ***************************************************************
 765b           *  BL   @VIDTAB
 766b           *  DATA P0
 767b           *--------------------------------------------------------------
 768b           *  P0 = Address of video mode table
 769b           *--------------------------------------------------------------
 770b           *  BL   @XIDTAB
 771b           *
 772b           *  TMP0 = Address of video mode table
 773b           *--------------------------------------------------------------
 774b           *  Remarks
 775b           *  TMP1 = MSB is the VDP target register
 776b           *         LSB is the value to write
 777b           ********@*****@*********************@**************************
 778b 61D8 C13B VIDTAB  MOV   *R11+,TMP0            ; Get video mode table
 779b 61DA C394 XIDTAB  MOV   *TMP0,R14             ; Store copy of VDP#0 and #1 in RAM
 780b           *--------------------------------------------------------------
 781b           * Calculate PNT base address
 782b           *--------------------------------------------------------------
 783b 61DC C144         MOV   TMP0,TMP1
 784b 61DE 05C5         INCT  TMP1
 785b 61E0 D155         MOVB  *TMP1,TMP1            ; Get value for VDP#2
 786b 61E2 0245         ANDI  TMP1,>FF00            ; Only keep MSB
 786b 61E4 FF00  
 787b 61E6 0A25         SLA   TMP1,2                ; TMP1 *= 400
 788b 61E8 C805         MOV   TMP1,@WBASE           ; Store calculated base
 788b 61EA 8328  
 789b           *--------------------------------------------------------------
 790b           * Dump VDP shadow registers
 791b           *--------------------------------------------------------------
 792b 61EC 0205         LI    TMP1,>8000            ; Start with VDP register 0
 792b 61EE 8000  
 793b 61F0 0206         LI    TMP2,8
 793b 61F2 0008  
 794b 61F4 D834 VIDTA1  MOVB  *TMP0+,@TMP1LB        ; Write value to VDP register
 794b 61F6 830B  
 795b 61F8 06C5         SWPB  TMP1        
 796b 61FA D805         MOVB  TMP1,@VDPA        
 796b 61FC 8C02  
 797b 61FE 06C5         SWPB  TMP1
 798b 6200 D805         MOVB  TMP1,@VDPA
 798b 6202 8C02  
 799b 6204 0225         AI    TMP1,>0100
 799b 6206 0100  
 800b 6208 0606         DEC   TMP2
 801b 620A 16F4         JNE   VIDTA1                ; Next register
 802b 620C C814         MOV   *TMP0,@WCOLMN         ; Store # of columns per row
 802b 620E 833C  
 803b 6210 045B         B     *R11
 804b           *:..
 805b           
 806b           * PUTVR  (DATA P0) / PUTVRX ..:
 807b           ***************************************************************
 808b           * PUTVR  - Put single VDP register
 809b           ***************************************************************
 810b           *  BL   @PUTVR
 811b           *  DATA P0
 812b           *--------------------------------------------------------------
 813b           *  P0 = MSB is the VDP target register
 814b           *       LSB is the value to write
 815b           *--------------------------------------------------------------
 816b           *  BL   @PUTVRX
 817b           *
 818b           *  TMP0 = MSB is the VDP target register
 819b           *         LSB is the value to write
 820b           ********@*****@*********************@**************************
 821b 6212 C13B PUTVR   MOV   *R11+,TMP0
 822b 6214 0264 PUTVRX  ORI   TMP0,>8000
 822b 6216 8000  
 823b 6218 06C4         SWPB  TMP0        
 824b 621A D804         MOVB  TMP0,@VDPA        
 824b 621C 8C02  
 825b 621E 06C4         SWPB  TMP0
 826b 6220 D804         MOVB  TMP0,@VDPA
 826b 6222 8C02  
 827b 6224 045B         B     *R11
 828b           *:..
 829b           
 830b           * PUTV01 () ..:
 831b           ***************************************************************
 832b           * PUTV01  - Put VDP registers #0 and #1
 833b           ***************************************************************
 834b           *  BL   @PUTV01
 835b           ********@*****@*********************@**************************
 836b 6226 C20B PUTV01  MOV   R11,TMP4              ; Save R11
 837b 6228 C10E         MOV   R14,TMP0
 838b 622A 0984         SRL   TMP0,8
 839b 622C 06A0         BL    @PUTVRX               ; Write VR#0
 839b 622E 6214  
 840b 6230 0204         LI    TMP0,>0100
 840b 6232 0100  
 841b 6234 D820         MOVB  @R14LB,@TMP0LB
 841b 6236 831D  
 841b 6238 8309  
 842b 623A 06A0         BL    @PUTVRX               ; Write VR#1
 842b 623C 6214  
 843b 623E 0458         B     *TMP4                 ; Exit
 844b           * :..        
 845b           
 846b           * SCROFF () ..:
 847b           ***************************************************************
 848b           * SCROFF - Disable screen display
 849b           ***************************************************************
 850b           *  BL @SCROFF
 851b           ********@*****@*********************@**************************
 852b 6240 43A0 SCROFF  SZC   @WBIT9,R14            ; VDP#R1 bit 1=0 (Disable screen display)
 852b 6242 6038  
 853b 6244 10F0         JMP   PUTV01
 854b           *:..
 855b           
 856b           * SCRON  () ..:
 857b           ***************************************************************
 858b           * SCRON - Disable screen display
 859b           ***************************************************************
 860b           *  BL @SCRON
 861b           ********@*****@*********************@**************************
 862b 6246 E3A0 SCRON   SOC   @WBIT9,R14            ; VDP#R1 bit 1=1 (Enable screen display)
 862b 6248 6038  
 863b 624A 10ED         JMP   PUTV01
 864b           *:..
 865b           
 866b           * INTOFF () ..:
 867b           ***************************************************************
 868b           * INTOFF - Disable VDP interrupt
 869b           ***************************************************************
 870b           *  BL @INTOFF
 871b           ********@*****@*********************@**************************
 872b 624C 43A0 INTOFF  SZC   @WBIT10,R14           ; VDP#R1 bit 2=0 (Disable VDP interrupt)
 872b 624E 603A  
 873b 6250 10EA         JMP   PUTV01
 874b           *:..
 875b           
 876b           * INTON  () ..:
 877b           ***************************************************************
 878b           * INTON - Enable VDP interrupt
 879b           ***************************************************************
 880b           *  BL @INTON
 881b           ********@*****@*********************@**************************
 882b 6252 E3A0 INTON   SOC   @WBIT10,R14           ; VDP#R1 bit 2=1 (Enable VDP interrupt) 
 882b 6254 603A  
 883b 6256 10E7         JMP   PUTV01
 884b           *:..
 885b                   
 886b           * SMAG1X () ..:
 887b           ***************************************************************
 888b           * SMAG1X - Set sprite magnification 1x
 889b           ***************************************************************
 890b           *  BL @SMAG1X
 891b           ********@*****@*********************@**************************
 892b 6258 43A0 SMAG1X  SZC   @WBIT14,R14           ; VDP#R1 bit 7=0 (Sprite magnification 1x)
 892b 625A 6042  
 893b 625C 10E4         JMP   PUTV01
 894b           *:..
 895b           
 896b           * SMAG2X () ..:
 897b           ***************************************************************
 898b           * SMAG2X - Set sprite magnification 2x
 899b           ***************************************************************
 900b           *  BL @SMAG2X
 901b           ********@*****@*********************@**************************
 902b 625E 43A0 SMAG2X  SZC   @WBIT14,R14           ; VDP#R1 bit 7=1 (Sprite magnification 2x)
 902b 6260 6042  
 903b 6262 10E1         JMP   PUTV01
 904b           *:..
 905b           
 906b           * S8X8   () ..:
 907b           ***************************************************************
 908b           * S8X8 - Set sprite size 8x8 bits
 909b           ***************************************************************
 910b           *  BL @S8X8
 911b           ********@*****@*********************@**************************
 912b 6264 43A0 S8X8    SZC   @WBIT12,R14           ; VDP#R1 bit 6=0 (Sprite size 8x8)
 912b 6266 603E  
 913b 6268 10DE         JMP   PUTV01
 914b           *:..
 915b           
 916b           * S16X16 () ..:
 917b           ***************************************************************
 918b           * S16X16 - Set sprite size 16x16 bits
 919b           ***************************************************************
 920b           *  BL @S16X16
 921b           ********@*****@*********************@**************************
 922b 626A E3A0 S16X16  SOC   @WBIT12,R14           ; VDP#R1 bit 6=1 (Sprite size 16x16)
 922b 626C 603E  
 923b 626E 10DB         JMP   PUTV01
 924b           *:..  
 925b                   
 926b           * YX2PNT (@YX) ..:
 927b           ***************************************************************
 928b           * YX2PNT - Get VDP PNT address for current YX cursor position
 929b           ***************************************************************
 930b           *  BL   @YX2PNT
 931b           *--------------------------------------------------------------
 932b           *  INPUT
 933b           *  @WYX = Cursor YX position
 934b           *--------------------------------------------------------------
 935b           *  OUTPUT
 936b           *  TMP0 = VDP address for entry in Pattern Name Table
 937b           *--------------------------------------------------------------
 938b           *  Register usage
 939b           *  TMP0, R14, R15
 940b           ********@*****@*********************@**************************
 941b 6270 C10E YX2PNT  MOV   R14,TMP0              ; Save VDP#0 & VDP#1
 942b 6272 C3A0         MOV   @WYX,R14              ; Get Y
 942b 6274 832A  
 943b 6276 098E         SRL   R14,8                 ; Right justify
 944b 6278 3BA0         MPY   @WCOLMN,R14           ; pos = Y * (columns per row)
 944b 627A 833C  
 945b           *--------------------------------------------------------------
 946b           * Do rest of calculation with R15
 947b           *--------------------------------------------------------------        
 948b 627C B820         AB    @BX,@R15LB            ; pos = pos + X
 948b 627E 832B  
 948b 6280 831F  
 949b 6282 A3E0         A     @WBASE,R15            ; pos = pos + (PNT base address)        
 949b 6284 8328  
 950b           *--------------------------------------------------------------
 951b           * Clean up before exit
 952b           *--------------------------------------------------------------         
 953b 6286 C384         MOV   TMP0,R14              ; Restore VDP#0 & VDP#1
 954b 6288 C10F         MOV   R15,TMP0              ; Return pos in TMP0
 955b 628A 020F         LI    R15,VDPW              ; Set VDP write address
 955b 628C 8C00  
 956b 628E 045B         B     *R11
 957b           * :..
 958b                   
 959b           * YX2PX  (@YX) / YX2PXX ..:
 960b           ***************************************************************
 961b           * YX2PX - Get pixel position for cursor YX position
 962b           ***************************************************************
 963b           *  BL   @YX2PX
 964b           *
 965b           *  (CONFIG:0 = 1) = Skip sprite adjustment
 966b           *--------------------------------------------------------------
 967b           *  INPUT
 968b           *  @WYX   = Cursor YX position
 969b           *--------------------------------------------------------------
 970b           *  OUTPUT
 971b           *  TMP0HB = Y pixel position
 972b           *  TMP0LB = X pixel position
 973b           *--------------------------------------------------------------
 974b           *  Remarks
 975b           *  This subroutine does not support multicolor or text mode
 976b           ********@*****@*********************@**************************
 977b 6290 C120 YX2PX   MOV   @WYX,TMP0
 977b 6292 832A  
 978b 6294 C18B YX2PXX  MOV   R11,TMP2              ; Save return address        
 979b 6296 06C4         SWPB  TMP0                  ; Y<->X
 980b 6298 04C5         CLR   TMP1                  ; Clear before copy
 981b 629A D144         MOVB  TMP0,TMP1             ; Copy X to TMP1
 982b 629C 0A35         SLA   TMP1,3                ; X=X*8        
 983b 629E 0A34         SLA   TMP0,3                ; Y=Y*8
 984b 62A0 D105         MOVB  TMP1,TMP0
 985b 62A2 06C4         SWPB  TMP0                  ; X<->Y        
 986b 62A4 2320 YX2PI1  COC   @WBIT0,CONFIG         ; Skip sprite adjustment ?
 986b 62A6 6026  
 987b 62A8 1305         JEQ   YX2PI3                ; Yes, exit
 988b           *--------------------------------------------------------------
 989b           * Adjust for Y sprite location
 990b           * See VDP Programmers Guide, Section 9.2.1
 991b           *--------------------------------------------------------------
 992b 62AA 7120 YX2PI2  SB    @BD1,TMP0             ; Adjust Y. Top of screen is at >FF
 992b 62AC 6049  
 993b 62AE 9120         CB    @BD208,TMP0           ; Y position = >D0 ?
 993b 62B0 6052  
 994b 62B2 13FB         JEQ   YX2PI2                ; Yes, but that's not allowed, correct
 995b 62B4 0456 YX2PI3  B     *TMP2                 ; Exit
 996b 62B6 2000 BDIG32  DATA  >2000
 997b           * :..
 998b           
 999b           * PX2YX  () ..:
1000b           ***************************************************************
1001b           * PX2YX - Get YX tile position for specified YX pixel position
1002b           ***************************************************************
1003b           *  BL   @PX2YX
1004b           *--------------------------------------------------------------
1005b           *  INPUT
1006b           *  TMP0   = Pixel YX position
1007b           *
1008b           *  (CONFIG:0 = 1) = Skip sprite adjustment
1009b           *--------------------------------------------------------------
1010b           *  OUTPUT
1011b           *  TMP0HB = Y tile position
1012b           *  TMP0LB = X tile position
1013b           *  TMP1HB = Y pixel offset
1014b           *  TMP1LB = X pixel offset
1015b           *--------------------------------------------------------------
1016b           *  Remarks
1017b           *  This subroutine does not support multicolor or text mode
1018b           ********@*****@*********************@**************************
1019b 62B8 2320 PX2YX   COC   @WBIT0,CONFIG         ; Skip sprite adjustment ?
1019b 62BA 6026  
1020b 62BC 1302         JEQ   PX2YX1
1021b 62BE 0224         AI    TMP0,>0100            ; Adjust Y. Top of screen is at >FF
1021b 62C0 0100  
1022b 62C2 C144 PX2YX1  MOV   TMP0,TMP1             ; Copy YX
1023b 62C4 C184         MOV   TMP0,TMP2             ; Copy YX
1024b           *--------------------------------------------------------------
1025b           * Calculate Y tile position 
1026b           *--------------------------------------------------------------
1027b 62C6 09B4         SRL   TMP0,11               ; Y: Move to TMP0LB & (Y = Y / 8)
1028b           *--------------------------------------------------------------
1029b           * Calculate Y pixel offset
1030b           *--------------------------------------------------------------
1031b 62C8 C1C4         MOV   TMP0,TMP3             ; Y: Copy Y tile to TMP3LB
1032b 62CA 0AB7         SLA   TMP3,11               ; Y: Move to TMP3HB & (Y = Y * 8)
1033b 62CC 0507         NEG   TMP3
1034b 62CE B1C5         AB    TMP1,TMP3             ; Y: offset = Y pixel old + (-Y) pixel new
1035b           *--------------------------------------------------------------
1036b           * Calculate X tile position
1037b           *--------------------------------------------------------------
1038b 62D0 0245         ANDI  TMP1,>00FF            ; Clear TMP1HB
1038b 62D2 00FF  
1039b 62D4 0A55         SLA   TMP1,5                ; X: Move to TMP1HB & (X = X / 8)
1040b 62D6 D105         MOVB  TMP1,TMP0             ; X: TMP0 <-- XY tile position
1041b 62D8 06C4         SWPB  TMP0                  ; XY tile position <-> YX tile position
1042b           *--------------------------------------------------------------
1043b           * Calculate X pixel offset
1044b           *--------------------------------------------------------------
1045b 62DA 0245         ANDI  TMP1,>FF00            ; X: Get rid of remaining junk in TMP1LB
1045b 62DC FF00  
1046b 62DE 0A35         SLA   TMP1,3                ; X: (X = X * 8)
1047b 62E0 0505         NEG   TMP1
1048b 62E2 06C6         SWPB  TMP2                  ; YX <-> XY                
1049b 62E4 B146         AB    TMP2,TMP1             ; offset X = X pixel old  + (-X) pixel new
1050b 62E6 06C5         SWPB  TMP1                  ; X0 <-> 0X
1051b 62E8 D147         MOVB  TMP3,TMP1             ; 0X --> YX
1052b 62EA 045B         B     *R11                  ; Exit
1053b           * :..
1054b           
1055b           * SCRDIM (DATA P0,P1) ..:
1056b           ***************************************************************
1057b           * SCRDIM - Set (virtual) screen dimension
1058b           ***************************************************************
1059b           *  BL   @SCRDIM
1060b           *--------------------------------------------------------------
1061b           *  INPUT
1062b           *  P0 = PNT base address
1063b           *  P1 = Number of columns per row
1064b           ********@*****@*********************@**************************
1065b 62EC C83B SCRDIM  MOV   *R11+,@WBASE          ; VDP destination address
1065b 62EE 8328  
1066b 62F0 C83B         MOV   *R11+,@WCOLMN         ; Number of columns per row
1066b 62F2 833C  
1067b 62F4 045B         B     *R11                  ; Exit
1068b           * :..
1069b           
1070b                   
1071b           *//////////////////////////////////////////////////////////////
1072b           *                      VDP TILE FUNCTIONS
1073b           *//////////////////////////////////////////////////////////////
1074b           
1075b           * LDFNT  (DATA P0,P1) ..:
1076b           ***************************************************************
1077b           *  - Load TI-99/4A font from GROM into VDP
1078b           ***************************************************************
1079b           *  BL   @LDFNT
1080b           *  DATA P0,P1
1081b           *--------------------------------------------------------------
1082b           *  P0 = VDP Target address
1083b           *  P1 = Font options
1084b           ********@*****@*********************@**************************
1085b 62F6 C20B LDFNT   MOV   R11,TMP4              ; Save R11
1086b 62F8 05CB         INCT  R11                   ; Get 2nd parameter (font options)
1087b 62FA C11B         MOV   *R11,TMP0             ; Get parameter value
1088b 62FC 024C         ANDI  CONFIG,>7FFF          ; CONFIG register bit 0=0
1088b 62FE 7FFF  
1089b 6300 2120         COC   @WBIT0,TMP0
1089b 6302 6026  
1090b 6304 1604         JNE   LDFNT1
1091b 6306 026C         ORI   CONFIG,>8000          ; CONFIG register bit 0=1            
1091b 6308 8000  
1092b 630A 0244         ANDI  TMP0,>7FFF            ; Parameter value bit 0=0         
1092b 630C 7FFF  
1093b 630E C124 LDFNT1  MOV   @TMP006(TMP0),TMP0    ; Load GROM index address ...
1093b 6310 636E  
1094b 6312 0205         LI    TMP1,TMP3HB           ; ... into register TMP3
1094b 6314 830E  
1095b 6316 0206         LI    TMP2,2
1095b 6318 0002  
1096b 631A 06A0         BL    @XPYG2M               ; Get font table address
1096b 631C 6158  
1097b           *--------------------------------------------------------------
1098b           * Setup GROM source and VDP target address
1099b           *--------------------------------------------------------------
1100b 631E D807         MOVB  TMP3,@GRMWA
1100b 6320 9C02  
1101b 6322 06C7         SWPB  TMP3
1102b 6324 D807         MOVB  TMP3,@GRMWA           ; Setup GROM address for reading                
1102b 6326 9C02  
1103b 6328 C118         MOV   *TMP4,TMP0            ; Get 1st parameter (VDP destination)
1104b 632A 06A0         BL    @VDWA                 ; Setup VDP destination address         
1104b 632C 61A6  
1105b 632E 05C8         INCT  TMP4                  ; R11=R11+2
1106b 6330 C158         MOV   *TMP4,TMP1            ; Get font options into TMP1
1107b 6332 0245         ANDI  TMP1,>7FFF            ; Parameter value bit 0=0    
1107b 6334 7FFF  
1108b 6336 C1A5         MOV   @TMP006+2(TMP1),TMP2  ; Get number of patterns to copy
1108b 6338 6370  
1109b 633A C165         MOV   @TMP006+4(TMP1),TMP1  ; 7 or 8 byte pattern ?
1109b 633C 6372  
1110b           *--------------------------------------------------------------
1111b           * Copy from GROM to VRAM
1112b           *--------------------------------------------------------------
1113b 633E 0B15 LDFNT2  SRC   TMP1,1                ; Carry set ?
1114b 6340 1812         JOC   LDFNT4                ; Yes, go insert a >00
1115b 6342 D120         MOVB  @GRMRD,TMP0
1115b 6344 9800  
1116b           *--------------------------------------------------------------
1117b           *   Make font fat
1118b           *--------------------------------------------------------------         
1119b 6346 2320         COC   @WBIT0,CONFIG         ; Fat flag set ?
1119b 6348 6026  
1120b 634A 1603         JNE   LDFNT3                ; No, so skip         
1121b 634C D3C4         MOVB  TMP0,TMP6
1122b 634E 091F         SRL   TMP6,1
1123b 6350 E10F         SOC   TMP6,TMP0                  
1124b           *-------------------------------------------------------------
1125b           *   Dump byte to VDP and do housekeeping
1126b           *--------------------------------------------------------------
1127b 6352 D804 LDFNT3  MOVB  TMP0,@VDPW            ; Dump byte to VRAM
1127b 6354 8C00  
1128b 6356 0606         DEC   TMP2
1129b 6358 16F2         JNE   LDFNT2
1130b 635A 05C8         INCT  TMP4                  ; R11=R11+2
1131b 635C 020F         LI    R15,VDPW              ; Set VDP write address
1131b 635E 8C00  
1132b 6360 024C         ANDI  CONFIG,>7FFF          ; CONFIG register bit 0=0
1132b 6362 7FFF  
1133b 6364 0458         B     *TMP4                 ; Exit
1134b 6366 D820 LDFNT4  MOVB  @BD0,@VDPW            ; Insert byte >00 into VRAM
1134b 6368 6048  
1134b 636A 8C00  
1135b 636C 10E8         JMP   LDFNT2
1136b 636E 004C TMP006  DATA  >004C,64*8,>0000      ; Pointer to TI title screen font
1136b 6370 0200  
1136b 6372 0000  
1137b 6374 004E         DATA  >004E,64*7,>0101      ; Pointer to upper case font
1137b 6376 01C0  
1137b 6378 0101  
1138b 637A 004E         DATA  >004E,96*7,>0101      ; Pointer to upper & lower case font
1138b 637C 02A0  
1138b 637E 0101  
1139b 6380 0050         DATA  >0050,32*7,>0101      ; Pointer to lower case font 
1139b 6382 00E0  
1139b 6384 0101  
1140b           *:..
1141b           
1142b           * PUTSTR (DATA P0) / XUTSTR ..:
1143b           ***************************************************************
1144b           * Put length-byte prefixed string at current YX
1145b           ***************************************************************
1146b           *  BL   @PUTSTR
1147b           *  DATA P0
1148b           *
1149b           *  P0 = Pointer to string
1150b           *--------------------------------------------------------------
1151b           *  REMARKS
1152b           *  First byte of string must contain length
1153b           ********@*****@*********************@**************************
1154b 6386 C17B PUTSTR  MOV   *R11+,TMP1
1155b 6388 D1B5         MOVB  *TMP1+,TMP2           ; Get length byte
1156b 638A C1CB XUTSTR  MOV   R11,TMP3
1157b 638C 06A0         BL    @YX2PNT               ; Get VDP destination address
1157b 638E 6270  
1158b 6390 C2C7         MOV   TMP3,R11        
1159b 6392 0986         SRL   TMP2,8                ; Right justify length byte        
1160b 6394 0460         B     @XPYM2V               ; Display string
1160b 6396 6110  
1161b           *:..
1162b           
1163b           * PUTAT  (DATA P0) ..:
1164b           ***************************************************************
1165b           * Put length-byte prefixed string at YX
1166b           ***************************************************************
1167b           *  BL   @PUTAT
1168b           *  DATA P0,P1
1169b           *
1170b           *  P0 = YX position
1171b           *  P1 = Pointer to string
1172b           *--------------------------------------------------------------
1173b           *  REMARKS
1174b           *  First byte of string must contain length
1175b           ********@*****@*********************@**************************
1176b 6398 C83B PUTAT   MOV   *R11+,@WYX            ; Set YX position
1176b 639A 832A  
1177b 639C 0460         B     @PUTSTR     
1177b 639E 6386  
1178b           *:..
1179b           
1180b           * HCHAR  (DATA P0,P1,...,EOL) ..:
1181b           ***************************************************************
1182b           * Repeat characters horizontally at YX
1183b           ***************************************************************
1184b           *  BL    @HCHAR
1185b           *  DATA  P0,P1
1186b           *  ...
1187b           *  DATA  EOL                        ; End-of-list
1188b           *--------------------------------------------------------------
1189b           *  P0HB = Y position
1190b           *  P0LB = X position
1191b           *  P1HB = Byte to write
1192b           *  P1LB = Number of times to repeat
1193b           ********@*****@*********************@**************************
1194b 63A0 C83B HCHAR   MOV   *R11+,@WYX            ; Set YX position
1194b 63A2 832A  
1195b 63A4 D17B         MOVB  *R11+,TMP1
1196b 63A6 0985         SRL   TMP1,8                ; Byte to write
1197b 63A8 D1BB         MOVB  *R11+,TMP2
1198b 63AA 0986         SRL   TMP2,8                ; Repeat count
1199b 63AC C1CB         MOV   R11,TMP3
1200b 63AE 06A0         BL    @YX2PNT               ; Get VDP address into TMP0
1200b 63B0 6270  
1201b           *--------------------------------------------------------------
1202b           *    Draw line
1203b           *--------------------------------------------------------------         
1204b 63B2 020B         LI    R11,HCHAR1  
1204b 63B4 63BA  
1205b 63B6 0460         B     @XFILV                ; Draw
1205b 63B8 609E  
1206b           *--------------------------------------------------------------
1207b           *    Do housekeeping
1208b           *--------------------------------------------------------------        
1209b 63BA 8817 HCHAR1  C     *TMP3,@WHFFFF         ; End-Of-List marker found ?
1209b 63BC 6046  
1210b 63BE 1302         JEQ   HCHAR2                ; Yes, exit
1211b 63C0 C2C7         MOV   TMP3,R11
1212b 63C2 10EE         JMP   HCHAR                 ; Next one
1213b 63C4 05C7 HCHAR2  INCT  TMP3
1214b 63C6 0457         B     *TMP3                 ; Exit
1215b           *:..
1216b           
1217b           * VCHAR  (DATA P0,P1,...,EOL) ..:
1218b           ***************************************************************
1219b           * Repeat characters vertically at YX
1220b           ***************************************************************
1221b           *  BL    @VCHAR
1222b           *  DATA  P0,P1
1223b           *  ...
1224b           *  DATA  EOL                        ; End-of-list
1225b           *--------------------------------------------------------------
1226b           *  P0HB = Y position
1227b           *  P0LB = X position
1228b           *  P1HB = Byte to write
1229b           *  P1LB = Number of times to repeat
1230b           ********@*****@*********************@**************************
1231b 63C8 C83B VCHAR   MOV   *R11+,@WYX            ; Set YX position
1231b 63CA 832A  
1232b 63CC C1CB         MOV   R11,TMP3              ; Save R11 in TMP3
1233b 63CE C220 VCHAR1  MOV   @WCOLMN,TMP4          ; Get columns per row
1233b 63D0 833C  
1234b 63D2 06A0         BL    @YX2PNT               ; Get VDP address into TMP0        
1234b 63D4 6270  
1235b 63D6 D177         MOVB  *TMP3+,TMP1           ; Byte to write        
1236b 63D8 D1B7         MOVB  *TMP3+,TMP2
1237b 63DA 0986         SRL   TMP2,8                ; Repeat count        
1238b           *--------------------------------------------------------------
1239b           *    Setup VDP write address
1240b           *--------------------------------------------------------------
1241b 63DC 0264 VCHAR2  ORI   TMP0,>4000
1241b 63DE 4000  
1242b 63E0 06C4 VCHAR3  SWPB  TMP0
1243b 63E2 D804         MOVB  TMP0,@VDPA
1243b 63E4 8C02  
1244b 63E6 06C4         SWPB  TMP0
1245b 63E8 D804         MOVB  TMP0,@VDPA
1245b 63EA 8C02  
1246b           *--------------------------------------------------------------
1247b           *    Dump tile to VDP and do housekeeping
1248b           *--------------------------------------------------------------
1249b 63EC D7C5         MOVB  TMP1,*R15             ; Dump tile to VDP
1250b 63EE A108         A     TMP4,TMP0             ; Next row
1251b 63F0 0606         DEC   TMP2
1252b 63F2 16F6         JNE   VCHAR3        
1253b 63F4 8817         C     *TMP3,@WHFFFF         ; End-Of-List marker found ?
1253b 63F6 6046  
1254b 63F8 1303         JEQ   VCHAR4                ; Yes, exit
1255b 63FA C837         MOV   *TMP3+,@WYX           ; Save YX position
1255b 63FC 832A  
1256b 63FE 10E7         JMP   VCHAR1                ; Next one
1257b 6400 05C7 VCHAR4  INCT  TMP3       
1258b 6402 0457         B     *TMP3                 ; Exit
1259b           *:..        
1260b           
1261b           * FILBOX (DATA P0,P1,P2,...,EOL) ..:
1262b           ***************************************************************
1263b           * FILBOX - Fill box with character
1264b           ***************************************************************
1265b           *  BL   @FILBOX
1266b           *  DATA P0,P1,P2
1267b           *  ...
1268b           *  DATA EOL
1269b           *--------------------------------------------------------------
1270b           *  P0HB = Upper left corner Y
1271b           *  P0LB = Upper left corner X
1272b           *  P1HB = Width
1273b           *  P1LB = Height
1274b           *  P2HB = >00
1275b           *  P2LB = Character to fill
1276b           ********@*****@*********************@**************************
1277b 6404 C83B FILBOX  MOV   *R11+,@WYX            ; Upper left corner
1277b 6406 832A  
1278b 6408 D1BB         MOVB  *R11+,TMP2            ; Width in TMP2
1279b 640A D1FB         MOVB  *R11+,TMP3            ; Height in TMP3        
1280b 640C C17B         MOV   *R11+,TMP1            ; Byte to fill       
1281b 640E C20B         MOV   R11,TMP4              ; Save R11
1282b 6410 0986         SRL   TMP2,8                ; Right-align width
1283b 6412 0987         SRL   TMP3,8                ; Right-align height
1284b           *--------------------------------------------------------------
1285b           *  Do single row
1286b           *--------------------------------------------------------------           
1287b 6414 06A0 FILBO1  BL    @YX2PNT               ; Get VDP address into TMP0
1287b 6416 6270  
1288b 6418 020B         LI    R11,FILBO2            ; New return address  
1288b 641A 6420  
1289b 641C 0460         B     @XFILV                ; Fill VRAM with byte
1289b 641E 609E  
1290b           *--------------------------------------------------------------
1291b           *  Recover width & character
1292b           *--------------------------------------------------------------          
1293b 6420 C108 FILBO2  MOV   TMP4,TMP0
1294b 6422 0224         AI    TMP0,-4               ; R11 - 4
1294b 6424 FFFC  
1295b 6426 C1B4         MOV   *TMP0+,TMP2           ; Get Width/Height
1296b 6428 0986         SRL   TMP2,8                ; Right align
1297b 642A C154         MOV   *TMP0,TMP1            ; Get character to fill
1298b           *--------------------------------------------------------------
1299b           *  Housekeeping
1300b           *--------------------------------------------------------------           
1301b 642C A820         A     @WH100,@BY            ; Y=Y+1
1301b 642E 6034  
1301b 6430 832A  
1302b 6432 0607         DEC   TMP3
1303b 6434 15EF         JGT   FILBO1                ; Process next row        
1304b 6436 8818         C     *TMP4,@WHFFFF         ; End-Of-List marker found ?
1304b 6438 6046  
1305b 643A 1302         JEQ   FILBO3                ; Yes, exit
1306b 643C C2C8         MOV   TMP4,R11
1307b 643E 10E2         JMP   FILBOX                ; Next one
1308b 6440 05C8 FILBO3  INCT  TMP4
1309b 6442 0458         B     *TMP4                 ; Exit
1310b           *:..
1311b           
1312b           * PUTBOX (DATA P0,P1,P2,...,EOL) ..:
1313b           ***************************************************************
1314b           * PUTBOX - Put tiles in box
1315b           ***************************************************************
1316b           *  BL   @PUTBOX
1317b           *  DATA P0,P1,P2
1318b           *  ...
1319b           *  DATA EOL
1320b           *--------------------------------------------------------------
1321b           *  P0HB = Upper left corner Y
1322b           *  P0LB = Upper left corner X
1323b           *  P1HB = Width
1324b           *  P1LB = Height
1325b           *  P2   = Pointer to length-byte prefixed string
1326b           ********@*****@*********************@**************************
1327b 6444 C83B PUTBOX  MOV   *R11+,@WYX            ; Upper left corner
1327b 6446 832A  
1328b 6448 D1BB         MOVB  *R11+,TMP2            ; Width in TMP2
1329b 644A D1FB         MOVB  *R11+,TMP3            ; Height in TMP3        
1330b 644C C17B         MOV   *R11+,TMP1            ; Pointer to string
1331b 644E C20B         MOV   R11,TMP4              ; Save R11        
1332b 6450 B1A0         AB    @BX,TMP2
1332b 6452 832B  
1333b 6454 B1E0         AB    @BY,TMP3                
1333b 6456 832A  
1334b 6458 024C         ANDI  CONFIG,>7FFF          ; Reset bit 0 (state flag)
1334b 645A 7FFF  
1335b           *--------------------------------------------------------------
1336b           *  Setup VDP write address
1337b           *--------------------------------------------------------------        
1338b 645C 06A0 PUTBO1  BL    @YX2PNT               ; Get VDP address into TMP0
1338b 645E 6270  
1339b 6460 06A0         BL    @VDWA                 ; Set VDP write address
1339b 6462 61A6  
1340b           *--------------------------------------------------------------
1341b           *  Prepare string for processing
1342b           *--------------------------------------------------------------
1343b 6464 2320         COC   @WBIT0,CONFIG         ; state flag 0 set ?
1343b 6466 6026  
1344b 6468 1303         JEQ   PUTBO2                ; Yes, so skip
1345b 646A D135         MOVB  *TMP1+,TMP0           ; Get length byte
1346b 646C 0984         SRL   TMP0,8                ; Right justify
1347b 646E 1005         JMP   PUTBO3
1348b 6470 C106 PUTBO2  MOV   TMP2,TMP0             ; Recover counter
1349b 6472 0244         ANDI  TMP0,>00FF            ; Counter is in LB
1349b 6474 00FF  
1350b 6476 0246         ANDI  TMP2,>FF00            ; Only keep with in TMP2
1350b 6478 FF00  
1351b           *--------------------------------------------------------------
1352b           *  Write line of tiles in box
1353b           *--------------------------------------------------------------                
1354b 647A D7F5 PUTBO3  MOVB  *TMP1+,*R15           ; Write to VDP
1355b 647C 0604         DEC   TMP0                  
1356b 647E 1316         JEQ   PUTBO6                ; End of string, reset to begin
1357b           *--------------------------------------------------------------
1358b           *  Adjust cursor
1359b           *--------------------------------------------------------------         
1360b 6480 05A0 PUTBO4  INC   @WYX                  ; X=X+1
1360b 6482 832A  
1361b 6484 91A0         CB    @BX,TMP2              ; Right boundary reached ?
1361b 6486 832B  
1362b 6488 11F8         JLT   PUTBO3                ; Not yet, continue
1363b 648A A820         A     @WH100,@BY            ; Y=Y+1        
1363b 648C 6034  
1363b 648E 832A  
1364b 6490 91E0         CB    @BY,TMP3              ; Bottom boundary reached ?
1364b 6492 832A  
1365b 6494 1312         JEQ   PUTBO7                ; Yes, exit
1366b           *--------------------------------------------------------------
1367b           *  Recover starting column
1368b           *-------------------------------------------------------------- 
1369b 6496 D820         MOVB  @TMP0LB,@TMP2LB       ; Save counter
1369b 6498 8309  
1369b 649A 830D  
1370b 649C C108         MOV   TMP4,TMP0        
1371b 649E 0224         AI    TMP0,-5
1371b 64A0 FFFB  
1372b 64A2 D814         MOVB  *TMP0,@BX             ; Recover X
1372b 64A4 832B  
1373b 64A6 026C         ORI   CONFIG,>8000          ; CONFIG register bit 0=1 
1373b 64A8 8000  
1374b 64AA 10D8         JMP   PUTBO1                ; Draw next line           
1375b           *--------------------------------------------------------------
1376b           *  Recover string pointer
1377b           *--------------------------------------------------------------          
1378b 64AC C108 PUTBO6  MOV   TMP4,TMP0
1379b 64AE 0224         AI    TMP0,-2               ; R11 - 2        
1379b 64B0 FFFE  
1380b 64B2 C154         MOV   *TMP0,TMP1            ; Get string pointer
1381b 64B4 D135         MOVB  *TMP1+,TMP0           ; Get length byte
1382b 64B6 0984         SRL   TMP0,8                ; Right justify
1383b 64B8 10E3         JMP   PUTBO4                ; Adjust cursor
1384b 64BA 8818 PUTBO7  C     *TMP4,@WHFFFF         ; End-Of-List marker found ?
1384b 64BC 6046  
1385b 64BE 1302         JEQ   PUTBO8                ; Yes, exit
1386b 64C0 C2C8         MOV   TMP4,R11
1387b 64C2 10C0         JMP   PUTBOX                ; Next one
1388b 64C4 024C PUTBO8  ANDI  CONFIG,>7FFF          ; CONFIG register bit 0=0
1388b 64C6 7FFF  
1389b 64C8 0458         B     *TMP4                 ; Exit
1390b           *:..
1391b           
1392b           * MKNUM  (DATA P0,P1,P2) ..:
1393b           ***************************************************************
1394b           * MKNUM - Convert unsigned number to string
1395b           ***************************************************************
1396b           *  BL   @MKNUM
1397b           *  DATA P0,P1,P2
1398b           *
1399b           *  P0   = Pointer to 16 bit unsigned number
1400b           *  P1   = Pointer to 5 byte string buffer
1401b           *  P2HB = Offset for ASCII digit
1402b           *  P2LB = Character for replacing leading 0's
1403b           *
1404b           *  (CONFIG:0 = 1) = Display number at cursor YX
1405b           ********@*****@*********************@**************************
1406b 64CA 0207 MKNUM   LI    TMP3,5                ; Digit counter
1406b 64CC 0005  
1407b 64CE C17B         MOV   *R11+,TMP1            ; \ Get 16 bit unsigned number
1408b 64D0 C155         MOV   *TMP1,TMP1            ; /
1409b 64D2 C23B         MOV   *R11+,TMP4            ; Pointer to string buffer        
1410b 64D4 0228         AI    TMP4,4                ; Get end of buffer
1410b 64D6 0004  
1411b 64D8 0206         LI    TMP2,10               ; Divide by 10 to isolate last digit
1411b 64DA 000A  
1412b           *--------------------------------------------------------------
1413b           *  Do string conversion
1414b           *--------------------------------------------------------------  
1415b 64DC 04C4 MKNUM1  CLR   TMP0                  ; Clear the high word of the dividend
1416b 64DE 3D06         DIV   TMP2,TMP0             ; (TMP0:TMP1) / 10 (TMP2)
1417b 64E0 06C5         SWPB  TMP1                  ; Move to high-byte for writing to buffer        
1418b 64E2 B15B         AB    *R11,TMP1             ; Add offset for ASCII digit        
1419b 64E4 D605         MOVB  TMP1,*TMP4            ; Write remainder to string buffer
1420b 64E6 C144         MOV   TMP0,TMP1             ; Move integer result into R4 for the next digit
1421b 64E8 0608         DEC   TMP4                  ; Adjust string pointer for next digit
1422b 64EA 0607         DEC   TMP3                  ; Decrease counter
1423b 64EC 16F7         JNE   MKNUM1                ; Do next digit
1424b           *--------------------------------------------------------------
1425b           *  Replace leading 0's with fill character
1426b           *--------------------------------------------------------------
1427b 64EE 0207         LI    TMP3,4                ; Check first 4 digits
1427b 64F0 0004  
1428b 64F2 0588         INC   TMP4                  ; Too far, back to buffer start
1429b 64F4 C11B         MOV   *R11,TMP0
1430b 64F6 0A84         SLA   TMP0,8                ; Only keep fill character in HB
1431b 64F8 96D8 MKNUM2  CB    *TMP4,*R11            ; Digit = 0 ?
1432b 64FA 1305         JEQ   MKNUM4                ; Yes, replace with fill character
1433b 64FC 05CB MKNUM3  INCT  R11
1434b 64FE 2320         COC   @WBIT0,CONFIG         ; Check if 'display' bit is set
1434b 6500 6026  
1435b 6502 1305         JEQ   MKNUM5                ; Yes, so show at current YX position
1436b 6504 045B         B     *R11                  ; Exit
1437b 6506 DE04 MKNUM4  MOVB  TMP0,*TMP4+           ; Replace leading 0 with fill character
1438b 6508 0607         DEC   TMP3                  ; 4th digit processed ?
1439b 650A 13F8         JEQ   MKNUM3                ; Yes, exit
1440b 650C 10F5         JMP   MKNUM2                ; No, next one
1441b           *--------------------------------------------------------------
1442b           *  Display integer on screen at current YX position
1443b           *--------------------------------------------------------------        
1444b 650E 024C MKNUM5  ANDI  CONFIG,>7FFF          ; Reset bit 0
1444b 6510 7FFF  
1445b 6512 C10B         MOV   R11,TMP0
1446b 6514 0224         AI    TMP0,-4
1446b 6516 FFFC  
1447b 6518 C154         MOV   *TMP0,TMP1            ; Get buffer address
1448b 651A 0206         LI    TMP2,>0500            ; String length = 5
1448b 651C 0500  
1449b 651E 0460         B     @XUTSTR               ; Display string
1449b 6520 638A  
1450b                   
1451b           * :..
1452b           
1453b           * PUTNUM (DATA P0,P1,P2,P3) ..:
1454b           ***************************************************************
1455b           * PUTNUM - Put unsigned number on screen 
1456b           ***************************************************************
1457b           *  BL   @PUTNUM
1458b           *  DATA P0,P1,P2,P3
1459b           *--------------------------------------------------------------
1460b           *  P0   = YX position
1461b           *  P1   = Pointer to 16 bit unsigned number
1462b           *  P2   = Pointer to 5 byte string buffer
1463b           *  P3HB = Offset for ASCII digit
1464b           *  P3LB = Character for replacing leading 0's
1465b           ********@*****@*********************@**************************
1466b 6522 C83B PUTNUM  MOV   *R11+,@WYX            ; Set cursor
1466b 6524 832A  
1467b 6526 026C         ORI   CONFIG,>8000          ; CONFIG register bit 0=1
1467b 6528 8000  
1468b 652A 10CF         JMP   MKNUM                 ; Convert number and display
1469b           *:..
1470b           
1471b           
1472b           
1473b                   
1474b           *//////////////////////////////////////////////////////////////
1475b           *                            SOUND
1476b           *//////////////////////////////////////////////////////////////
1477b           
1478b           * MUTE   () / MUTE2  ..: 
1479b           ***************************************************************
1480b           * MUTE - Mute all sound generators
1481b           ***************************************************************
1482b           *  BL  @MUTE
1483b           *  Mute sound generators and clear sound pointer
1484b           *
1485b           *  BL  @MUTE2
1486b           *  Mute sound generators without clearing sound pointer
1487b           ********@*****@*********************@**************************                      
1488b 652C 04E0 MUTE    CLR   @WSDLST               ; Clear sound pointer
1488b 652E 8334  
1489b 6530 4320 MUTE2   SZC   @WBIT13,CONFIG        ; Turn off/pause sound player
1489b 6532 6040  
1490b 6534 0204         LI    TMP0,MUTTAB
1490b 6536 6546  
1491b 6538 0205         LI    TMP1,SOUND            ; Sound generator port >8400
1491b 653A 8400  
1492b 653C D574         MOVB  *TMP0+,*TMP1          ; Generator 0
1493b 653E D574         MOVB  *TMP0+,*TMP1          ; Generator 1
1494b 6540 D574         MOVB  *TMP0+,*TMP1          ; Generator 2
1495b 6542 D554         MOVB  *TMP0,*TMP1           ; Generator 3
1496b 6544 045B         B     *R11
1497b 6546 9FBF MUTTAB  BYTE  >9F,>BF,>DF,>FF       ; Table for muting all generators
1497b 6548 DFFF  
1498b           * :..
1499b           
1500b           * SDPREP (DATA P0,P1) ..:
1501b           ***************************************************************
1502b           * SDPREP - Prepare for playing sound
1503b           ***************************************************************
1504b           *  BL   @SDPREP
1505b           *  DATA P0,P1
1506b           *
1507b           *  P0 = Address where tune is stored
1508b           *  P1 = Option flags for sound player 
1509b           *--------------------------------------------------------------
1510b           *  REMARKS
1511b           *  Use the below equates for P1:
1512b           *
1513b           *  SDOPT1 => Tune is in CPU memory + loop
1514b           *  SDOPT2 => Tune is in CPU memory
1515b           *  SDOPT3 => Tune is in VRAM + loop
1516b           *  SDOPT4 => Tune is in VRAM
1517b           ********@*****@*********************@************************** 
1518b 654A C81B SDPREP  MOV   *R11,@WSDLST          ; Set tune address
1518b 654C 8334  
1519b 654E C83B         MOV   *R11+,@WSDTMP         ; Set tune address in temp
1519b 6550 8336  
1520b 6552 024C         ANDI  R12,>FFF8             ; Clear bits 13-14-15
1520b 6554 FFF8  
1521b 6556 E33B         SOC   *R11+,CONFIG          ; Set options
1522b 6558 D820         MOVB  @BD1,@R13LB           ; Set initial duration
1522b 655A 6049  
1522b 655C 831B  
1523b 655E 045B         B     *R11
1524b           *:..
1525b                   
1526b           * SDPLAY () ..:
1527b           ***************************************************************
1528b           * SDPLAY - Sound player for tune in VRAM or CPU memory
1529b           ***************************************************************
1530b           *  BL  @SDPLAY
1531b           *--------------------------------------------------------------
1532b           *  REMARKS
1533b           *  Set config register bit13=0 to pause player.
1534b           *  Set config register bit14=1 to repeat (or play next tune).
1535b           ********@*****@*********************@**************************                   
1536b 6560 2320 SDPLAY  COC   @WBIT13,CONFIG        ; Play tune ?
1536b 6562 6040  
1537b 6564 1301         JEQ   SDPLA1                ; Yes, play
1538b 6566 045B         B     *R11
1539b           *--------------------------------------------------------------
1540b           * Initialisation
1541b           *--------------------------------------------------------------              
1542b 6568 060D SDPLA1  DEC   R13                   ; duration = duration - 1
1543b 656A 9820         CB    @R13LB,@BD0           ; R13LB == 0 ?
1543b 656C 831B  
1543b 656E 6048  
1544b 6570 1301         JEQ   SDPLA3                ; Play next note
1545b 6572 045B SDPLA2  B     *R11                  ; Note still busy, exit  
1546b 6574 2320 SDPLA3  COC   @WBIT15,CONFIG        ; Play tune from CPU memory ?
1546b 6576 6044  
1547b 6578 131A         JEQ   MMPLAY 
1548b           *--------------------------------------------------------------
1549b           * Play tune from VDP memory
1550b           *--------------------------------------------------------------        
1551b 657A C120 VDPLAY  MOV   @WSDTMP,TMP0          ; Get tune address        
1551b 657C 8336  
1552b 657E 06C4         SWPB  TMP0
1553b 6580 D804         MOVB  TMP0,@VDPA
1553b 6582 8C02  
1554b 6584 06C4         SWPB  TMP0
1555b 6586 D804         MOVB  TMP0,@VDPA
1555b 6588 8C02  
1556b 658A 04C4         CLR   TMP0        
1557b 658C D120         MOVB  @VDPR,TMP0            ; length = 0 (end of tune) ?
1557b 658E 8800  
1558b 6590 131E         JEQ   SDEXIT                ; Yes. exit
1559b 6592 0984 VDPLA1  SRL   TMP0,8                ; Right justify length byte
1560b 6594 A804         A     TMP0,@WSDTMP          ; Adjust for next table entry
1560b 6596 8336  
1561b 6598 D820 VDPLA2  MOVB  @VDPR,@>8400          ; Feed byte to sound generator
1561b 659A 8800  
1561b 659C 8400  
1562b 659E 0604         DEC   TMP0
1563b 65A0 16FB         JNE   VDPLA2
1564b 65A2 D820         MOVB  @VDPR,@R13LB          ; Set duration counter       
1564b 65A4 8800  
1564b 65A6 831B  
1565b 65A8 05E0 VDPLA3  INCT  @WSDTMP               ; Adjust for next table entry, honour byte (1) + (n+1)
1565b 65AA 8336  
1566b 65AC 045B         B     *R11
1567b           *--------------------------------------------------------------
1568b           * Play tune from CPU memory
1569b           *-------------------------------------------------------------- 
1570b 65AE C120 MMPLAY  MOV   @WSDTMP,TMP0
1570b 65B0 8336  
1571b 65B2 D174         MOVB  *TMP0+,TMP1           ; length = 0 (end of tune) ?
1572b 65B4 130C         JEQ   SDEXIT                ; Yes, exit
1573b 65B6 0985 MMPLA1  SRL   TMP1,8                ; Right justify length byte
1574b 65B8 A805         A     TMP1,@WSDTMP          ; Adjust for next table entry
1574b 65BA 8336  
1575b 65BC D834 MMPLA2  MOVB  *TMP0+,@>8400         ; Feed byte to sound generator
1575b 65BE 8400  
1576b 65C0 0605         DEC   TMP1
1577b 65C2 16FC         JNE   MMPLA2
1578b 65C4 D814         MOVB  *TMP0,@R13LB          ; Set duration counter
1578b 65C6 831B  
1579b 65C8 05E0         INCT  @WSDTMP               ; Adjust for next table entry, honour byte (1) + (n+1)
1579b 65CA 8336  
1580b 65CC 045B         B     *R11
1581b           *--------------------------------------------------------------
1582b           * Exit. Check if tune must be looped
1583b           *--------------------------------------------------------------         
1584b 65CE 2320 SDEXIT  COC   @WBIT14,CONFIG        ; Loop flag set ?
1584b 65D0 6042  
1585b 65D2 1607         JNE   SDEXI2                ; No, exit
1586b 65D4 C820         MOV   @WSDLST,@WSDTMP 
1586b 65D6 8334  
1586b 65D8 8336  
1587b 65DA D820         MOVB  @BD1,@R13LB           ; Set initial duration
1587b 65DC 6049  
1587b 65DE 831B  
1588b 65E0 045B SDEXI1  B     *R11                  ; Exit
1589b 65E2 024C SDEXI2  ANDI  CONFIG,>FFF8          ; Reset music player
1589b 65E4 FFF8  
1590b 65E6 045B         B     *R11                  ; Exit        
1591b           * :..
1592b           
1593b           
1594b           *//////////////////////////////////////////////////////////////
1595b           *                            SPEECH
1596b           *//////////////////////////////////////////////////////////////
1597b           
1598b           * SPSTAT () ..:
1599b           ***************************************************************
1600b           * SPSTAT - Read status register byte from speech synthesizer
1601b           ***************************************************************
1602b           *  LI  TMP2,@>....
1603b           *  B   @SPSTAT
1604b           *--------------------------------------------------------------
1605b           * REMARKS
1606b           * Destroys R11 !
1607b           * 
1608b           * Register usage
1609b           * TMP0HB = Status byte read from speech synth
1610b           * TMP1   = Temporary use  (scratchpad machine code)
1611b           * TMP2   = Return address for this subroutine
1612b           * R11    = Return address (scratchpad machine code)
1613b           ********@*****@*********************@**************************
1614b 65E8 0204 SPSTAT  LI    TMP0,SPCHRD           ; (R4) = >9000
1614b 65EA 9000  
1615b 65EC C820         MOV   @SPCODE,@MCSPRD       ; \
1615b 65EE 6070  
1615b 65F0 8322  
1616b 65F2 C820         MOV   @SPCODE+2,@MCSPRD+2   ; / Load speech read code
1616b 65F4 6072  
1616b 65F6 8324  
1617b 65F8 020B         LI    R11,SPSTA1            ; Return to SPSTA1
1617b 65FA 6600  
1618b 65FC 0460         B     @MCSPRD               ; Run scratchpad code
1618b 65FE 8322  
1619b 6600 C820 SPSTA1  MOV   @MCCODE,@MCSPRD       ; \
1619b 6602 606A  
1619b 6604 8322  
1620b 6606 C820         MOV   @MCCODE+2,@MCSPRD+2   ; / Restore tight loop code        
1620b 6608 606C  
1620b 660A 8324  
1621b 660C 0456         B     *TMP2                 ; Exit
1622b           *:..
1623b                   
1624b           * SPCONN () ..:
1625b           ***************************************************************
1626b           * SPCONN - Check if speech synthesizer connected
1627b           ***************************************************************
1628b           * BL  @SPCONN
1629b           *--------------------------------------------------------------
1630b           * OUTPUT
1631b           * TMP0HB = Byte read from speech synth
1632b           *--------------------------------------------------------------
1633b           * REMARKS
1634b           * See Editor/Assembler manual, section 22.1.6 page 354.
1635b           * Calls SPSTAT.
1636b           * 
1637b           * Register usage
1638b           * TMP0HB = Byte read from speech synth
1639b           * TMP3   = Copy of R11
1640b           * R12    = CONFIG register
1641b           ********@*****@*********************@**************************        
1642b 660E C1CB SPCONN  MOV   R11,TMP3              ; Save R11
1643b 6610 D820         MOVB  @BH10,@SPCHWT         ; Load >10
1643b 6612 603D  
1643b 6614 9400  
1644b 6616 0206         LI    TMP2,SPCON1           
1644b 6618 661E  
1645b 661A 0460         B     @SPSTAT               ; Read status byte
1645b 661C 65E8  
1646b 661E 0457 SPCON1  B     *TMP3                 ; Exit
1647b           *:..        
1648b           
1649b           * SPPREP (DATA P0,P1) ..:
1650b           ***************************************************************
1651b           * SPPREP - Prepare for playing speech
1652b           ***************************************************************
1653b           *  BL   @SPPREP
1654b           *  DATA P0,P1
1655b           *
1656b           *  P0 = Address of LPC data for external voice
1657b           *       or index of word to speak if resident voice
1658b           *  P1 = Option flags for speech player 
1659b           *--------------------------------------------------------------
1660b           *  REMARKS
1661b           *  Use the below equates for P1:
1662b           *
1663b           *  SPOPT1  => External voice
1664b           *  SPOPT2  => Resident voice
1665b           ********@*****@*********************@************************** 
1666b 6620 C83B SPPREP  MOV   *R11+,@WSPEAK         ; Set speech address
1666b 6622 8338  
1667b 6624 024C         ANDI  R12,>E3FF             ; Clear bits 3-4-5
1667b 6626 E3FF  
1668b 6628 E33B         SOC   *R11+,CONFIG          ; Set options
1669b 662A 045B         B     *R11
1670b           *:..
1671b                  
1672b           * SPPLAY () ..:
1673b           ***************************************************************
1674b           * SPPLAY - Speech player
1675b           ***************************************************************
1676b           * BL  @SPPLAY
1677b           *--------------------------------------------------------------
1678b           * Register usage
1679b           * TMP3   = Copy of R11
1680b           * R12    = CONFIG register
1681b           ********@*****@*********************@**************************                
1682b 662C 2720 SPPLAY  CZC   @WBIT3,CONFIG         ; Player off ?
1682b 662E 602C  
1683b 6630 1332         JEQ   SPPLAZ                ; Yes, exit
1684b 6632 C1CB SPPLA1  MOV   R11,TMP3              ; Save R11
1685b 6634 2320         COC   @TMP010,CONFIG        ; Is on/busy/external ?
1685b 6636 6698  
1686b 6638 1313         JEQ   SPKEX3                ; Check FIFO buffer level
1687b 663A 2320         COC   @WBIT5,CONFIG         ; Start speak external ?
1687b 663C 6030  
1688b 663E 1300         JEQ   SPKEXT                ; Yes, do it
1689b           *--------------------------------------------------------------
1690b           * Speak resident: ****
1691b           *--------------------------------------------------------------        
1692b           *       NOT   YET
1693b           *--------------------------------------------------------------
1694b           * Speak external: Push LPC data to speech synthesizer
1695b           *--------------------------------------------------------------        
1696b 6640 C120 SPKEXT  MOV   @WSPEAK,TMP0
1696b 6642 8338  
1697b 6644 D834         MOVB  *TMP0+,@SPCHWT        ; Send byte to speech synth
1697b 6646 9400  
1698b 6648 1000         JMP   $+2                   ; Delay
1699b 664A 0206         LI    TMP2,16
1699b 664C 0010  
1700b 664E D834 SPKEX1  MOVB  *TMP0+,@SPCHWT        ; Send byte to speech synth
1700b 6650 9400  
1701b 6652 0606         DEC   TMP2
1702b 6654 16FC         JNE   SPKEX1
1703b 6656 026C         ORI   CONFIG,>1800          ; bit 4=1 (busy) & bit 5=1 (external)
1703b 6658 1800  
1704b 665A C804         MOV   TMP0,@WSPEAK          ; Update LPC pointer
1704b 665C 8338  
1705b 665E 101B         JMP   SPPLAZ                ; Exit
1706b           *--------------------------------------------------------------
1707b           * Speak external: Check synth FIFO buffer level 
1708b           *--------------------------------------------------------------         
1709b 6660 0206 SPKEX3  LI    TMP2,SPKEX4           ; Set return address for SPSTAT
1709b 6662 6668  
1710b 6664 0460         B     @SPSTAT               ; Get speech FIFO buffer status
1710b 6666 65E8  
1711b 6668 2120 SPKEX4  COC   @WH4000,TMP0          ; FIFO BL (buffer low) bit set ?
1711b 666A 6028  
1712b 666C 1301         JEQ   SPKEX5                ; Yes, refill
1713b 666E 1013         JMP   SPPLAZ                ; No, exit
1714b           *--------------------------------------------------------------
1715b           * Speak external: Refill synth with LPC data if FIFO buffer low
1716b           *--------------------------------------------------------------         
1717b 6670 C120 SPKEX5  MOV   @WSPEAK,TMP0        
1717b 6672 8338  
1718b 6674 0206         LI    TMP2,8                ; Bytes to send to speech synth
1718b 6676 0008  
1719b 6678 D174 SPKEX6  MOVB  *TMP0+,TMP1         
1720b 667A D805         MOVB  TMP1,@SPCHWT          ; Send byte to speech synth
1720b 667C 9400  
1721b 667E 0285         CI    TMP1,SPKOFF           ; Speak off marker found ?
1721b 6680 FF00  
1722b 6682 1305         JEQ   SPKEX8
1723b 6684 0606         DEC   TMP2
1724b 6686 16F8         JNE   SPKEX6                ; Send next byte
1725b 6688 C804         MOV   TMP0,@WSPEAK          ; Update LPC pointer
1725b 668A 8338  
1726b 668C 1004 SPKEX7  JMP   SPPLAZ                ; Exit
1727b           *--------------------------------------------------------------
1728b           * Speak external: Done with speaking
1729b           *--------------------------------------------------------------   
1730b 668E 4320 SPKEX8  SZC   @TMP010,CONFIG        ; bit 3,4,5=0
1730b 6690 6698  
1731b 6692 04E0         CLR   @WSPEAK               ; Reset pointer
1731b 6694 8338  
1732b 6696 0457 SPPLAZ  B     *TMP3                 ; Exit
1733b 6698 1C00 TMP010  DATA  >1C00                 ; Binary 0001110000000000
1734b           *:..
1735b           
1736b           
1737b           
1738b           *//////////////////////////////////////////////////////////////
1739b           *                           KEYBOARD
1740b           *//////////////////////////////////////////////////////////////
1741b           
1742b           * VIRTKB () ..:
1743b           ***************************************************************
1744b           * VIRTKB - Read virtual keyboard and joysticks
1745b           ***************************************************************
1746b           *  BL @VIRTKB
1747b           *--------------------------------------------------------------
1748b           *  COLUMN     0     1  2  3  4  5    6   7
1749b           *         +---------------------------------+------+
1750b           *  ROW 7  |   =     .  ,  M  N  /   JS1 JS2 | Fire |
1751b           *  ROW 6  | SPACE   L  K  J  H  :;  JS1 JS2 | Left |
1752b           *  ROW 5  | ENTER   O  I  U  Y  P   JS1 JS2 | Right|
1753b           *  ROW 4  |         9  8  7  6  0   JS1 JS2 | Down |
1754b           *  ROW 3  | FCTN    2  3  4  5  1   JS1 JS2 | Up   |
1755b           *  ROW 2  | SHIFT   S  D  F  G  A           +------|
1756b           *  ROW 1  | CTRL    W  E  R  T  Q                  |
1757b           *  ROW 0  |         X  C  V  B  Z                  |
1758b           *         +----------------------------------------+
1759b           *  See MG smart programmer 1986 
1760b           *  September/Page 15 and November/Page 6
1761b           *  Also see virtual keyboard status for bits to check
1762b           *--------------------------------------------------------------
1763b           *  Register usage
1764b           *  TMP0     Keyboard matrix column to process
1765b           *  TMP1MSB  Keyboard matrix 8 bits of 1 column
1766b           *  TMP2     Virtual keyboard flags
1767b           *  TMP3     Address of entry in mapping table
1768b           *  TMP4     Copy of R12 (CONFIG REGISTER)
1769b           *  R12      CRU communication
1770b           ********@*****@*********************@**************************
1771b 669A 4320 VIRTKB  SZC   @WBIT11,CONFIG        ; Reset ANY key
1771b 669C 603C  
1772b 669E C20C         MOV   CONFIG,TMP4           ; Save R12 (CONFIG REGISTER)        
1773b 66A0 04C4         CLR   TMP0                  ; Value in MSB! Start with column 0
1774b 66A2 04C6         CLR   TMP2                  ; Erase virtual keyboard flags
1775b 66A4 0207         LI    TMP3,KBMAP0           ; Start with column 0
1775b 66A6 6716  
1776b           *--------------------------------------------------------------        
1777b           * Check alpha lock key
1778b           *-------@-----@---------------------@--------------------------
1779b 66A8 04CC         CLR   R12
1780b 66AA 1E15         SBZ   >0015                 ; Set P5
1781b 66AC 1F07         TB    7
1782b 66AE 1302         JEQ   VIRTK1
1783b 66B0 0206         LI    TMP2,KALPHA           ; Alpha lock key down
1783b 66B2 8000  
1784b           *--------------------------------------------------------------        
1785b           * Scan keyboard matrix
1786b           *-------@-----@---------------------@--------------------------
1787b 66B4 1D15 VIRTK1  SBO   >0015                 ; Reset P5
1788b 66B6 020C         LI    R12,>0024             ; Scan full 8x8 keyboard matrix. R12 is used by LDCR
1788b 66B8 0024  
1789b 66BA 30C4         LDCR  TMP0,3                ; Set keyboard column with a value from 0-7 (3=3 bits)
1790b 66BC 020C         LI    R12,>0006             ; Load CRU base for row. R12 required by STCR
1790b 66BE 0006  
1791b 66C0 0705         SETO  TMP1                  ; >FFFF
1792b 66C2 3605         STCR  TMP1,8                ; Bring 8 row bits into MSB of TMP1
1793b 66C4 0545         INV   TMP1
1794b 66C6 1302         JEQ   VIRTK2                ; >0000 ?
1795b 66C8 E220         SOC   @WBIT11,TMP4          ; Set ANY key in copy of CONFIG register
1795b 66CA 603C  
1796b           *--------------------------------------------------------------
1797b           * Process column
1798b           *-------@-----@---------------------@--------------------------                
1799b 66CC 2177 VIRTK2  COC   *TMP3+,TMP1           ; Check bit mask
1800b 66CE 1601         JNE   VIRTK3
1801b 66D0 E197         SOC   *TMP3,TMP2            ; Set virtual keyboard flags
1802b 66D2 05C7 VIRTK3  INCT  TMP3
1803b 66D4 8817         C     *TMP3,@KBEOC          ; End-of-column ?
1803b 66D6 6722  
1804b 66D8 16F9         JNE   VIRTK2                ; No, next entry
1805b 66DA 05C7         INCT  TMP3
1806b           *--------------------------------------------------------------
1807b           * Prepare for next column
1808b           *-------@-----@---------------------@--------------------------                               
1809b 66DC 0284 VIRTK4  CI    TMP0,>0700            ; Column 7 processed ?
1809b 66DE 0700  
1810b 66E0 1309         JEQ   VIRTK6                ; Yes, exit
1811b 66E2 0284         CI    TMP0,>0200            ; Column 2 processed ?
1811b 66E4 0200  
1812b 66E6 1303         JEQ   VIRTK5                ; Yes, skip
1813b 66E8 0224         AI    TMP0,>0100
1813b 66EA 0100  
1814b 66EC 10E3         JMP   VIRTK1
1815b 66EE 0204 VIRTK5  LI    TMP0,>0500            ; Skip columns 3-4        
1815b 66F0 0500  
1816b 66F2 10E0         JMP   VIRTK1
1817b           *--------------------------------------------------------------
1818b           * Exit
1819b           *-------@-----@---------------------@--------------------------
1820b 66F4 C308 VIRTK6  MOV   TMP4,CONFIG           ; Restore CONFIG register
1821b 66F6 C806         MOV   TMP2,@WVRTKB          ; Save virtual keyboard flags
1821b 66F8 8332  
1822b 66FA 1601         JNE   VIRTK7        
1823b 66FC 045B         B     *R11                  ; Exit
1824b 66FE 0286 VIRTK7  CI    TMP2,>FFFF            ; FCTN-QUIT pressed ?
1824b 6700 FFFF  
1825b 6702 1603         JNE   VIRTK8                ; No
1826b 6704 0701         SETO  R1                    ; Set exit flag
1827b 6706 0460         B     @RUNLI1               ; Yes, reset computer
1827b 6708 6A0E  
1828b 670A 0286 VIRTK8  CI    TMP2,KALPHA           ; Only alpha-lock pressed ?
1828b 670C 8000  
1829b 670E 1602         JNE   VIRTK9
1830b 6710 4320         SZC   @WBIT11,CONFIG        ; Yes, so reset ANY key
1830b 6712 603C  
1831b 6714 045B VIRTK9  B     *R11                  ; Exit
1832b           *--------------------------------------------------------------
1833b           * Mapping table
1834b           *-------@-----@---------------------@--------------------------           
1835b           *                                   ; Bit 01234567
1836b 6716 1100 KBMAP0  DATA  >1100,>FFFF           ; >11 00010001  FCTN QUIT
1836b 6718 FFFF  
1837b 671A 0200         DATA  >0200,K1FIRE          ; >02 00000010  spacebar
1837b 671C 0020  
1838b 671E 0400         DATA  >0400,KENTER          ; >04 00000100  enter
1838b 6720 4000  
1839b 6722 FFFF KBEOC   DATA  >FFFF
1840b 6724 0800 KBMAP1  DATA  >0800,KBACK           ; >08 00001000  FCTN BACK 
1840b 6726 1000  
1841b 6728 2000         DATA  >2000,K1LF            ; >20 00100000  S (arrow left)
1841b 672A 0200  
1842b 672C 8000         DATA  >8000,K1DN            ; >80 10000000  X (arrow down)
1842b 672E 0040  
1843b 6730 FFFF         DATA  >FFFF
1844b 6732 0800 KBMAP2  DATA  >0800,KREDO           ; >08 00001000  FCTN REDO
1844b 6734 2000  
1845b 6736 2000         DATA  >2000,K1RG            ; >20 00100000  D (arrow right)
1845b 6738 0100  
1846b 673A 4000         DATA  >4000,K1UP            ; >80 01000000  E (arrow up)
1846b 673C 0080  
1847b 673E FFFF         DATA  >FFFF
1848b 6740 0800 KBCOL5  DATA  >0800,KPAUSE          ; >08 00001000  P (pause)
1848b 6742 0800  
1849b 6744 8000         DATA  >8000,K1FIRE          ; >80 01000000  Q (fire)
1849b 6746 0020  
1850b 6748 FFFF         DATA  >FFFF
1851b 674A 0100 KBMAP6  DATA  >0100,K1FIRE          ; >01 00000001  joystick 1 FIRE
1851b 674C 0020  
1852b 674E 0200         DATA  >0200,K1LF            ; >02 00000010  joystick 1 left
1852b 6750 0200  
1853b 6752 0400         DATA  >0400,K1RG            ; >04 00000100  joystick 1 right
1853b 6754 0100  
1854b 6756 0800         DATA  >0800,K1DN            ; >08 00001000  joystick 1 down
1854b 6758 0040  
1855b 675A 1000         DATA  >1000,K1UP            ; >10 00010000  joystick 1 up
1855b 675C 0080  
1856b 675E FFFF         DATA  >FFFF
1857b 6760 0100 KBMAP7  DATA  >0100,K2FIRE          ; >01 00000001  joystick 2 FIRE
1857b 6762 0001  
1858b 6764 0200         DATA  >0200,K2LF            ; >02 00000010  joystick 2 left
1858b 6766 0010  
1859b 6768 0400         DATA  >0400,K2RG            ; >04 00000100  joystick 2 right
1859b 676A 0008  
1860b 676C 0800         DATA  >0800,K2DN            ; >08 00001000  joystick 2 down
1860b 676E 0002  
1861b 6770 1000         DATA  >1000,K2UP            ; >10 00010000  joystick 2 up
1861b 6772 0004  
1862b 6774 FFFF         DATA  >FFFF
1863b           *:..
1864b           
1865b           * REALKB () ..:
1866b           ***************************************************************
1867b           * REALKB - Scan keyboard in real mode
1868b           ***************************************************************
1869b           *  BL @REALKB
1870b           *--------------------------------------------------------------
1871b           *  Taken from the book "TMS9900 assembler auf dem TI-99/4A".
1872b           *  Based on work done by Simon Koppelmann.
1873b           ********@*****@*********************@**************************
1874b 6776 C10C REALKB  MOV   R12,TMP0              ; Save R12 (CONFIG) in TMP0
1875b 6778 0244         ANDI  TMP0,>7FFF            ; Reset bit 0 in saved CONFIG register
1875b 677A 7FFF  
1876b 677C 020C         LI    R12,>0024
1876b 677E 0024  
1877b 6780 020F         LI    R15,KBSMAL            ; Default is KBSMAL table
1877b 6782 6814  
1878b 6784 04C6         CLR   TMP2              
1879b 6786 30C6         LDCR  TMP2,>0003            ; Lower case by default        
1880b           *--------------------------------------------------------------
1881b           * SHIFT key pressed ?
1882b           *--------------------------------------------------------------         
1883b 6788 04CC         CLR   R12
1884b 678A 1F08         TB    >0008                 ; Shift-key ?
1885b 678C 1302         JEQ   REALK1                ; No
1886b 678E 020F         LI    R15,KBSHFT            ; Yes, use KBSHIFT table
1886b 6790 6844  
1887b           *--------------------------------------------------------------
1888b           * FCTN key pressed ?
1889b           *--------------------------------------------------------------                  
1890b 6792 1F07 REALK1  TB    >0007                 ; FNCTN-key ?
1891b 6794 1302         JEQ   REALK2                ; No
1892b 6796 020F         LI    R15,KBFCTN            ; Yes, use KBFCTN table
1892b 6798 6874  
1893b           *--------------------------------------------------------------
1894b           * CTRL key pressed ?
1895b           *-------------------------------------------------------------- 
1896b 679A 1F09 REALK2  TB    >0009                 ; CTRL-key ?
1897b 679C 1302         JEQ   REALK3                ; No
1898b 679E 020F         LI    R15,KBCTRL            ; Yes, use KBCTRL table
1898b 67A0 68A4  
1899b           *--------------------------------------------------------------
1900b           * ALPHA LOCK key down ?
1901b           *-------------------------------------------------------------- 
1902b 67A2 1E15 REALK3  SBZ   >0015                 ; Set P5
1903b 67A4 1F07         TB    >0007                 ; ALPHA-Lock key ?
1904b 67A6 1602         JNE   REALK4                ; No,  saved CONFIG register bit 0 = 0
1905b 67A8 0264         ORI   TMP0,>8000            ; Yes, saved CONFIG register bit 0 = 1       
1905b 67AA 8000  
1906b           *--------------------------------------------------------------
1907b           * Scan keyboard column
1908b           *-------------------------------------------------------------- 
1909b 67AC 1D15 REALK4  SBO   >0015                 ; Reset P5
1910b 67AE 0206         LI    TMP2,6                ; Bitcombination for CRU, column counter
1910b 67B0 0006  
1911b 67B2 0606 REALK5  DEC   TMP2
1912b 67B4 020C         LI    R12,>24               ; CRU address for P2-P4
1912b 67B6 0024  
1913b 67B8 06C6         SWPB  TMP2
1914b 67BA 30C6         LDCR  TMP2,3                ; Transfer bit combination
1915b 67BC 06C6         SWPB  TMP2
1916b 67BE 020C         LI    R12,6                 ; CRU read address
1916b 67C0 0006  
1917b 67C2 3607         STCR  TMP3,8                ; Transfer 8 bits into R2HB
1918b 67C4 0547         INV   TMP3                  ;
1919b 67C6 0247         ANDI  TMP3,>FF00            ; Clear TMP3LB
1919b 67C8 FF00  
1920b           *--------------------------------------------------------------
1921b           * Scan keyboard row
1922b           *--------------------------------------------------------------         
1923b 67CA 04C5         CLR   TMP1                  ; Use TMP1 as row counter from now on
1924b 67CC 0A17 REALK6  SLA   TMP3,1                ; R2 bitcombinations scanned by shifting left.
1925b 67CE 1807         JOC   REALK8                ; If no carry after 8 loops, then it means no key
1926b 67D0 0585 REALK7  INC   TMP1                  ; was pressed on that line.
1927b 67D2 0285         CI    TMP1,8
1927b 67D4 0008  
1928b 67D6 1AFA         JL    REALK6
1929b 67D8 C186         MOV   TMP2,TMP2             ; All 6 columns processed ?
1930b 67DA 1BEB         JH    REALK5                ; No, next column
1931b 67DC 1017         JMP   REALKZ                ; Yes, exit
1932b           *--------------------------------------------------------------
1933b           * Check for match in data table
1934b           *--------------------------------------------------------------         
1935b 67DE C206 REALK8  MOV   TMP2,TMP4
1936b 67E0 0A38         SLA   TMP4,3                ; TMP4 = TMP2 * 8
1937b 67E2 A205         A     TMP1,TMP4             ; TMP4 = TMP4 + TMP1
1938b 67E4 A20F         A     R15,TMP4              ; TMP4 = TMP4 + base address of data table (R15)
1939b 67E6 D618         MOVB  *TMP4,*TMP4           ; Is the byte on that address = >00 ?
1940b 67E8 13F3         JEQ   REALK7                ; Yes, then discard and continue scanning (FCTN, SHIFT, CTRL)
1941b           *--------------------------------------------------------------
1942b           * Determine ASCII value of key
1943b           *-------------------------------------------------------------- 
1944b 67EA D198 REALK9  MOVB  *TMP4,TMP2            ; Real keypress. It's safe to reuse TMP2 now
1945b 67EC 2120         COC   @WBIT0,TMP0           ; ALPHA-Lock key pressed ?
1945b 67EE 6026  
1946b 67F0 1608         JNE   REALKA                ; No, continue with KBCONT4
1947b 67F2 9806         CB    TMP2,@KBSMAL+42       ; Is ASCII of key pressed < 97 ('a') ?
1947b 67F4 683E  
1948b 67F6 1A05         JL    REALKA
1949b 67F8 9806         CB    TMP2,@KBSMAL+40       ; and ASCII of key pressed > 122 ('z') ?
1949b 67FA 683C  
1950b 67FC 1B02         JH    REALKA                ; No, continue with REALKA
1951b 67FE 0226         AI    TMP2,->2000           ; ASCII = ASCII - 32 (lowercase to uppercase!)             
1951b 6800 E000  
1952b 6802 0986 REALKA  SRL   TMP2,8                ; Right justify
1953b 6804 C806         MOV   TMP2,@WASCKB          ; Store ASCII value of key pressed
1953b 6806 833E  
1954b 6808 E120         SOC   @WBIT11,TMP0          ; Set ANYKEY flag in saved CONFIG register 
1954b 680A 603C  
1955b 680C C304 REALKZ  MOV   TMP0,R12              ; Restore CONFIG register
1956b 680E 020F         LI    R15,VDPW              ; Setup VDP write address again after using R15 as temp storage
1956b 6810 8C00  
1957b 6812 045B         B     *R11                  ; Exit        
1958b           ********@*****@*********************@**************************
1959b 6814 FF00 KBSMAL  DATA  >FF00,>0000,>FF0D,>203D
1959b 6816 0000  
1959b 6818 FF0D  
1959b 681A 203D  
1960b 681C 7877         TEXT  'xws29ol.'
1960b 681E 7332  
1960b 6820 396F  
1960b 6822 6C2E  
1961b 6824 6365         TEXT  'ced38ik,'
1961b 6826 6433  
1961b 6828 3869  
1961b 682A 6B2C  
1962b 682C 7672         TEXT  'vrf47ujm'
1962b 682E 6634  
1962b 6830 3775  
1962b 6832 6A6D  
1963b 6834 6274         TEXT  'btg56yhn'
1963b 6836 6735  
1963b 6838 3679  
1963b 683A 686E  
1964b 683C 7A71         TEXT  'zqa10p;/'
1964b 683E 6131  
1964b 6840 3070  
1964b 6842 3B2F  
1965b 6844 FF00 KBSHFT  DATA  >FF00,>0000,>FF0D,>202B
1965b 6846 0000  
1965b 6848 FF0D  
1965b 684A 202B  
1966b 684C 5857         TEXT  'XWS@(OL>'
1966b 684E 5340  
1966b 6850 284F  
1966b 6852 4C3E  
1967b 6854 4345         TEXT  'CED#*IK<'
1967b 6856 4423  
1967b 6858 2A49  
1967b 685A 4B3C  
1968b 685C 5652         TEXT  'VRF$&UJM'
1968b 685E 4624  
1968b 6860 2655  
1968b 6862 4A4D  
1969b 6864 4254         TEXT  'BTG%^YHN'
1969b 6866 4725  
1969b 6868 5E59  
1969b 686A 484E  
1970b 686C 5A51         TEXT  'ZQA!)P:-'        
1970b 686E 4121  
1970b 6870 2950  
1970b 6872 3A2D  
1971b 6874 FF00 KBFCTN  DATA  >FF00,>0000,>FF0D,>2005
1971b 6876 0000  
1971b 6878 FF0D  
1971b 687A 2005  
1972b 687C 0A7E         DATA  >0A7E,>0804,>0F27,>C2B9
1972b 687E 0804  
1972b 6880 0F27  
1972b 6882 C2B9  
1973b 6884 600B         DATA  >600B,>0907,>063F,>C1B8
1973b 6886 0907  
1973b 6888 063F  
1973b 688A C1B8  
1974b 688C 7F5B         DATA  >7F5B,>7B02,>015F,>C0C3
1974b 688E 7B02  
1974b 6890 015F  
1974b 6892 C0C3  
1975b 6894 BE5D         DATA  >BE5D,>7D0E,>0CC6,>BFC4
1975b 6896 7D0E  
1975b 6898 0CC6  
1975b 689A BFC4  
1976b 689C 5CB9         DATA  >5CB9,>7C03,>BC22,>BDBA        
1976b 689E 7C03  
1976b 68A0 BC22  
1976b 68A2 BDBA  
1977b 68A4 FF00 KBCTRL  DATA  >FF00,>0000,>FF0D,>209D
1977b 68A6 0000  
1977b 68A8 FF0D  
1977b 68AA 209D  
1978b 68AC 9897         DATA  >9897,>93B2,>9F8F,>8C9B
1978b 68AE 93B2  
1978b 68B0 9F8F  
1978b 68B2 8C9B  
1979b 68B4 8385         DATA  >8385,>84B3,>9E89,>8B80
1979b 68B6 84B3  
1979b 68B8 9E89  
1979b 68BA 8B80  
1980b 68BC 9692         DATA  >9692,>86B4,>B795,>8A8D
1980b 68BE 86B4  
1980b 68C0 B795  
1980b 68C2 8A8D  
1981b 68C4 8294         DATA  >8294,>87B5,>B698,>888E
1981b 68C6 87B5  
1981b 68C8 B698  
1981b 68CA 888E  
1982b 68CC 9A91         DATA  >9A91,>81B1,>B090,>9CBB
1982b 68CE 81B1  
1982b 68D0 B090  
1982b 68D2 9CBB  
1983b           * :..        
1984b           
1985b           
1986b            
1987b 68D4 2320 GETKEY  COC   @WBIT11,CONFIG        ; ANYKEY pressed ?
1987b 68D6 603C  
1988b 68D8 1606         JNE   GETKEZ                ; No, exit
1989b 68DA 4320         SZC   @WBIT11,CONFIG        ; Reset ANYKEY flag in CONFIG register 
1989b 68DC 603C  
1990b 68DE C120         MOV   @WASCKB,TMP0          ; Get ASCII of key pressed
1990b 68E0 833E  
1991b 68E2 04E0 CLRKEY  CLR   @WASCKB               ; Reset ASCII buffer
1991b 68E4 833E  
1992b 68E6 069B GETKEZ  BL    *R11                  ; And exit
1993b           
1994b           
1995b           *//////////////////////////////////////////////////////////////
1996b           *                            TIMERS
1997b           *//////////////////////////////////////////////////////////////
1998b           
1999b           * TMGR   () ..:
2000b           ***************************************************************
2001b           * TMGR - X - Start Timer/Thread scheduler
2002b           ***************************************************************
2003b           *  B @TMGR
2004b           *--------------------------------------------------------------
2005b           *  REMARKS
2006b           *  Timer/Thread scheduler. Normally called from MAIN.
2007b           *  Don't forget to set BTIHI to highest slot in use.
2008b           *
2009b           *  Register usage in TMGR8 - TMGR11
2010b           *  TMP0  = Pointer to timer table
2011b           *  R10LB = Use as slot counter
2012b           *  TMP2  = 2nd word of slot data
2013b           *  TMP3  = Address of routine to call
2014b           ********@*****@*********************@**************************
2015b 68E8 0300 TMGR    LIMI  0                     ; No interrupt processing
2015b 68EA 0000  
2016b           *--------------------------------------------------------------
2017b           * Read VDP status register
2018b           *--------------------------------------------------------------
2019b 68EC D120 TMGR1   MOVB  @VDPS,TMP0            ; Get VDP status register
2019b 68EE 8802  
2020b 68F0 D344         MOVB  TMP0,R13              ; Save copy of VDP status register in R13
2021b 68F2 2120         COC   @WBIT0,TMP0           ; Interupt flag set ?
2021b 68F4 6026  
2022b 68F6 1316         JEQ   TMGR4                 ; Yes, process slots 0..n
2023b           *--------------------------------------------------------------
2024b           * Run speech player
2025b           *--------------------------------------------------------------        
2026b 68F8 2320         COC   @WBIT3,CONFIG         ; Speech player on ?
2026b 68FA 602C  
2027b 68FC 1602         JNE   TMGR2
2028b 68FE 06A0         BL    @SPPLA1               ; Run speech player                
2028b 6900 6632  
2029b           *--------------------------------------------------------------
2030b           * Run kernel thread
2031b           *--------------------------------------------------------------
2032b 6902 2320 TMGR2   COC   @WBIT8,CONFIG         ; Kernel thread blocked ?
2032b 6904 6036  
2033b 6906 1305         JEQ   TMGR3                 ; Yes, skip to user hook
2034b 6908 2320         COC   @WBIT9,CONFIG         ; Kernel thread enabled ?
2034b 690A 6038  
2035b 690C 1602         JNE   TMGR3                 ; No, skip to user hook
2036b 690E 0460         B     @KERNEL               ; Run kernel thread        
2036b 6910 69B4  
2037b           *--------------------------------------------------------------
2038b           * Run user hook 
2039b           *--------------------------------------------------------------
2040b 6912 2320 TMGR3   COC   @WBIT6,CONFIG         ; User hook blocked ?
2040b 6914 6032  
2041b 6916 13EA         JEQ   TMGR1
2042b 6918 2320         COC   @WBIT7,CONFIG         ; User hook enabled ?
2042b 691A 6034  
2043b 691C 16E7         JNE   TMGR1
2044b 691E C120         MOV   @WTIUSR,TMP0
2044b 6920 832E  
2045b 6922 0454         B     *TMP0                 ; Run user hook
2046b           *--------------------------------------------------------------
2047b           * Do some internal housekeeping
2048b           *--------------------------------------------------------------
2049b 6924 4320 TMGR4   SZC   @TMDAT,CONFIG         ; Unblock kernel thread and user hook              
2049b 6926 6986  
2050b 6928 C10A         MOV   R10,TMP0
2051b 692A 0244         ANDI  TMP0,>00FF            ; Clear HI byte
2051b 692C 00FF  
2052b 692E 2320         COC   @WBIT2,CONFIG         ; PAL flag set ?
2052b 6930 602A  
2053b 6932 1303         JEQ   TMGR5
2054b 6934 0284         CI    TMP0,60               ; 1 second reached ?        
2054b 6936 003C  
2055b 6938 1002         JMP   TMGR6
2056b 693A 0284 TMGR5   CI    TMP0,50
2056b 693C 0032  
2057b 693E 1101 TMGR6   JLT   TMGR7                 ; No, continue
2058b 6940 1001         JMP   TMGR8
2059b 6942 058A TMGR7   INC   R10                   ; Increase tick counter
2060b           *--------------------------------------------------------------
2061b           * Loop over slots
2062b           *--------------------------------------------------------------
2063b 6944 C120 TMGR8   MOV   @WTITAB,TMP0          ; Pointer to timer table
2063b 6946 832C  
2064b 6948 024A         ANDI  R10,>FF00             ; Use R10LB as slot counter. Reset.
2064b 694A FF00  
2065b 694C C1D4 TMGR9   MOV   *TMP0,TMP3            ; Is slot empty ?
2066b 694E 1316         JEQ   TMGR11                ; Yes, get next slot
2067b           *--------------------------------------------------------------
2068b           *  Check if slot should be executed
2069b           *--------------------------------------------------------------
2070b 6950 05C4         INCT  TMP0                  ; Second word of slot data
2071b 6952 0594         INC   *TMP0                 ; Update tick count in slot
2072b 6954 C194         MOV   *TMP0,TMP2            ; Get second word of slot data
2073b 6956 9820         CB    @TMP2HB,@TMP2LB       ; Slot target count = Slot internal counter ?
2073b 6958 830C  
2073b 695A 830D  
2074b 695C 1608         JNE   TMGR10                ; No, get next slot
2075b 695E 0246         ANDI  TMP2,>FF00            ; Clear internal counter
2075b 6960 FF00  
2076b 6962 C506         MOV   TMP2,*TMP0            ; Update timer table
2077b           *--------------------------------------------------------------
2078b           *  Run slot, we only need TMP0 to survive
2079b           *--------------------------------------------------------------
2080b 6964 C804         MOV   TMP0,@WTITMP          ; Save TMP0
2080b 6966 8330  
2081b 6968 0697         BL    *TMP3                 ; Call routine in slot
2082b 696A C120 SLOTOK  MOV   @WTITMP,TMP0          ; Restore TMP0
2082b 696C 8330  
2083b           *--------------------------------------------------------------
2084b           *  Prepare for next slot
2085b           *--------------------------------------------------------------
2086b 696E 058A TMGR10  INC   R10                   ; Next slot
2087b 6970 9820         CB    @R10LB,@BTIHI         ; Last slot done ?
2087b 6972 8315  
2087b 6974 8314  
2088b 6976 1504         JGT   TMGR12                ; yes, Wait for next VDP interrupt
2089b 6978 05C4         INCT  TMP0                  ; Offset for next slot
2090b 697A 10E8         JMP   TMGR9                 ; Process next slot
2091b 697C 05C4 TMGR11  INCT  TMP0                  ; Skip 2nd word of slot data
2092b 697E 10F7         JMP   TMGR10                ; Process next slot
2093b 6980 024A TMGR12  ANDI  R10,>FF00             ; Use R10LB as tick counter. Reset.
2093b 6982 FF00  
2094b 6984 10B3         JMP   TMGR1
2095b 6986 0280 TMDAT   DATA  >0280                 ; Bit 8 (kernel thread) and bit 6 (user hook)
2096b           *:..
2097b           
2098b           * MKSLOT (DATA P0,P1,...) ..:
2099b           ***************************************************************
2100b           * MKSLOT - Allocate timer slot(s)
2101b           ***************************************************************
2102b           *  BL    @MKSLOT
2103b           *  BYTE  P0HB,P0LB
2104b           *  DATA  P1
2105b           *  ....
2106b           *  DATA  EOL                        ; End-of-list
2107b           *--------------------------------------------------------------
2108b           *  P0 = Slot number, target count
2109b           *  P1 = Subroutine to call via BL @xxxx if slot is fired
2110b           ********@*****@*********************@**************************
2111b 6988 C13B MKSLOT  MOV   *R11+,TMP0
2112b 698A C17B         MOV   *R11+,TMP1
2113b           *--------------------------------------------------------------
2114b           *  Calculate address of slot
2115b           *--------------------------------------------------------------              
2116b 698C C184         MOV   TMP0,TMP2
2117b 698E 0966         SRL   TMP2,6                ; Right align & TMP2 = TMP2 * 4
2118b 6990 A1A0         A     @WTITAB,TMP2          ; Add table base
2118b 6992 832C  
2119b           *--------------------------------------------------------------
2120b           *  Add slot to table
2121b           *--------------------------------------------------------------        
2122b 6994 CD85         MOV   TMP1,*TMP2+           ; Store address of subroutine
2123b 6996 0A84         SLA   TMP0,8                ; Get rid of slot number
2124b 6998 C584         MOV   TMP0,*TMP2            ; Store target count and reset tick count
2125b           *--------------------------------------------------------------
2126b           *  Check for end of list
2127b           *--------------------------------------------------------------         
2128b 699A 881B         C     *R11,@WHFFFF          ; End of list ?
2128b 699C 6046  
2129b 699E 1301         JEQ   MKSLO1                ; Yes, exit
2130b 69A0 10F3         JMP   MKSLOT                ; Process next entry
2131b           *--------------------------------------------------------------
2132b           *  Exit
2133b           *--------------------------------------------------------------             
2134b 69A2 05CB MKSLO1  INCT  R11
2135b 69A4 045B         B     *R11                  ; Exit
2136b           *:..
2137b           
2138b           * CLSLOT (DATA P0) / XLSLOT ..:
2139b           ***************************************************************
2140b           * CLSLOT - Clear single timer slot
2141b           ***************************************************************
2142b           *  BL    @CLSLOT
2143b           *  DATA  P0
2144b           *--------------------------------------------------------------
2145b           *  P0 = Slot number
2146b           ********@*****@*********************@**************************
2147b 69A6 C13B CLSLOT  MOV   *R11+,TMP0
2148b 69A8 0A24 XLSLOT  SLA   TMP0,2                ; TMP0 = TMP0*4
2149b 69AA A120         A     @WTITAB,TMP0          ; Add table base
2149b 69AC 832C  
2150b 69AE 04F4         CLR   *TMP0+                ; Clear 1st word of slot
2151b 69B0 04D4         CLR   *TMP0                 ; Clear 2nd word of slot
2152b 69B2 045B         B     *R11                  ; Exit
2153b           *:..
2154b           
2155b           * KERNEL () ..:
2156b           ***************************************************************
2157b           * KERNEL - The kernel thread
2158b           *--------------------------------------------------------------
2159b           *  REMARKS
2160b           *  You shouldn't call the kernel thread manually.
2161b           *  Instead control it via the CONFIG register.
2162b           ********@*****@*********************@**************************
2163b 69B4 E320 KERNEL  SOC   @WBIT8,CONFIG         ; Block kernel thread
2163b 69B6 6036  
2164b 69B8 2320         COC   @WBIT13,CONFIG        ; Sound player on ?
2164b 69BA 6040  
2165b 69BC 1602         JNE   KERNE1
2166b 69BE 06A0         BL    @SDPLA1               ; Run sound player
2166b 69C0 6568  
2167b 69C2 06A0 KERNE1  BL    @VIRTKB               ; Scan virtual keyboard
2167b 69C4 669A  
2168b 69C6 2320         COC   @WBIT12,CONFIG        ; Keyboard mode real ?
2168b 69C8 603E  
2169b 69CA 1602         JNE   KERNEZ                ; No, exit
2170b 69CC 06A0         BL    @REALKB               ; Yes also scan the real keyboard
2170b 69CE 6776  
2171b 69D0 0460 KERNEZ  B     @TMGR3                ; Exit
2171b 69D2 6912  
2172b                     
2173b           *:..
2174b           
2175b           * MKHOOK (DATA P0) ..:
2176b           ***************************************************************
2177b           * MKHOOK - Allocate user hook
2178b           ***************************************************************
2179b           *  BL    @MKHOOK
2180b           *  DATA  P0
2181b           *--------------------------------------------------------------
2182b           *  P0 = Address of user hook
2183b           *--------------------------------------------------------------
2184b           *  REMARKS
2185b           *  The user hook gets executed after the kernel thread.
2186b           *  The user hook must always exit with "B @HOOKOK"
2187b           ********@*****@*********************@**************************
2188b 69D4 C83B MKHOOK  MOV   *R11+,@WTIUSR         ; Set user hook address
2188b 69D6 832E  
2189b 69D8 026C         ORI   CONFIG,ENUSR          ; Enable user hook
2189b 69DA 0100  
2190b 69DC 045B MKHOO1  B     *R11                  ; Return
2191b 0000 68EC HOOKOK  EQU   TMGR1                 ; Exit point for user hook        
2192b           *:..
2193b           
2194b           
2195b           *//////////////////////////////////////////////////////////////
2196b           *                       MISC FUNCTIONS
2197b           *//////////////////////////////////////////////////////////////
2198b           
2199b           * POPR.  (...) ..:
2200b           ***************************************************************
2201b           * POPR. - Pop registers & return to caller 
2202b           ***************************************************************
2203b           *  B  @POPRG.
2204b           *--------------------------------------------------------------
2205b           *  REMARKS
2206b           *  R11 must be at stack bottom
2207b           ********@*****@*********************@**************************
2208b 69DE C0F9 POPR3   MOV   *STACK+,R3
2209b 69E0 C0B9 POPR2   MOV   *STACK+,R2
2210b 69E2 C079 POPR1   MOV   *STACK+,R1
2211b 69E4 C039 POPR0   MOV   *STACK+,R0
2212b 69E6 C2F9 POPRT   MOV   *STACK+,R11
2213b 69E8 045B         B     *R11
2214b           *:..
2215b                   
2216b           * RND    (DATA P0) / RNDX ..:
2217b           ***************************************************************
2218b           * RND - Generate random number
2219b           ***************************************************************
2220b           *  BL   @RND
2221b           *  DATA P0
2222b           *--------------------------------------------------------------
2223b           *  P0 = Highest random number allowed
2224b           *
2225b           *--------------------------------------------------------------
2226b           *  BL   @RNDX
2227b           *
2228b           *  TMP0 = Highest random number allowed
2229b           *--------------------------------------------------------------
2230b           *  OUTPUT
2231b           *  TMP0 = The generated random number
2232b           ********@*****@*********************@**************************
2233b 69EA C13B RND     MOV   *R11+,TMP0            ; Highest number allowed
2234b 69EC 04C5 RNDX    CLR   TMP1
2235b 69EE C1A0         MOV   @WSEED,TMP2           ; Get random seed
2235b 69F0 833A  
2236b 69F2 1601         JNE   RND1
2237b 69F4 0586         INC   TMP2                  ; May not be zero
2238b 69F6 0916 RND1    SRL   TMP2,1
2239b 69F8 1702         JNC   RND2
2240b 69FA 29A0         XOR   @RNDDAT,TMP2
2240b 69FC 6A08  
2241b 69FE C806 RND2    MOV   TMP2,@WSEED           ; Store new random seed
2241b 6A00 833A  
2242b 6A02 3D44         DIV   TMP0,TMP1
2243b 6A04 C106         MOV   TMP2,TMP0         
2244b 6A06 045B         B     *R11                  ; Exit
2245b 6A08 B400 RNDDAT  DATA  >0B400                ; The magic number        
2246b           *:..
2247b           
2248b           
2249b           *//////////////////////////////////////////////////////////////
2250b           *                    RUNLIB INITIALISATION
2251b           *//////////////////////////////////////////////////////////////
2252b           
2253b           * RUNLIB () ..:
2254b           ***************************************************************
2255b           *  RUNLIB - Runtime library initalisation
2256b           ***************************************************************
2257b           *  B  @RUNLIB
2258b           *--------------------------------------------------------------
2259b           *  REMARKS
2260b           *  If R1 in WS1 equals >FFFF we return to the TI title screen
2261b           *  after clearing scratchpad memory. 
2262b           *  Use 'B @RUNLI1' to exit your program.
2263b           ********@*****@*********************@**************************
2264b 6A0A 04E0 RUNLIB  CLR   @>8302                ; Reset exit flag (R1 in workspace WS1!)
2264b 6A0C 8302  
2265b           *--------------------------------------------------------------
2266b           * Alternative entry point
2267b           *--------------------------------------------------------------         
2268b 6A0E 0300 RUNLI1  LIMI  0                     ; Turn off interrupts
2268b 6A10 0000  
2269b 6A12 02E0         LWPI  WS1                   ; Activate workspace 1
2269b 6A14 8300  
2270b 6A16 C0E0         MOV   @>83C0,R3             ; Get random seed from OS monitor
2270b 6A18 83C0  
2271b           *--------------------------------------------------------------
2272b           * Clear scratch-pad memory from R4 upwards
2273b           *--------------------------------------------------------------                      
2274b 6A1A 0202 RUNLI2  LI    R2,>8308
2274b 6A1C 8308  
2275b 6A1E 04F2 RUNLI3  CLR   *R2+                  ; Clear scratchpad >8306->83FF
2276b 6A20 0282         CI    R2,>8400
2276b 6A22 8400  
2277b 6A24 16FC         JNE   RUNLI3        
2278b           *--------------------------------------------------------------
2279b           * Exit to TI-99/4A title screen ?
2280b           *--------------------------------------------------------------             
2281b 6A26 0281         CI    R1,>FFFF              ; Exit flag set ?
2281b 6A28 FFFF  
2282b 6A2A 1602         JNE   RUNLI4                ; No, continue
2283b 6A2C 0420         BLWP  @0                    ; Yes, bye bye
2283b 6A2E 0000  
2284b           *--------------------------------------------------------------
2285b           * Determine if VDP is PAL or NTSC 
2286b           *--------------------------------------------------------------         
2287b 6A30 C803 RUNLI4  MOV   R3,@WSEED             ; Set random seed value
2287b 6A32 833A  
2288b 6A34 04C1         CLR   R1                    ; Reset counter
2289b 6A36 0202         LI    R2,10                 ; We test 10 times
2289b 6A38 000A  
2290b 6A3A C0E0 RUNLI5  MOV   @VDPS,R3
2290b 6A3C 8802  
2291b 6A3E 20E0         COC   @WBIT0,R3             ; Interupt flag set ?
2291b 6A40 6026  
2292b 6A42 1302         JEQ   RUNLI6
2293b 6A44 0581         INC   R1                    ; Increase counter
2294b 6A46 10F9         JMP   RUNLI5
2295b 6A48 0602 RUNLI6  DEC   R2                    ; Next test
2296b 6A4A 16F7         JNE   RUNLI5
2297b 6A4C 0281         CI    R1,>1250              ; Max for NTSC reached ?
2297b 6A4E 1250  
2298b 6A50 1202         JLE   RUNLI7                ; No, so it must be NTSC
2299b 6A52 026C         ORI   CONFIG,PALON          ; Yes, it must be PAL, set flag
2299b 6A54 2000  
2300b           *--------------------------------------------------------------
2301b           * Prepare tight loop
2302b           *--------------------------------------------------------------                 
2303b 6A56 06A0 RUNLI7  BL    @CPYM2M
2303b 6A58 60C0  
2304b 6A5A 606A         DATA  MCCODE,MCLOOP+2,6     ; Copy machine code to scratchpad        
2304b 6A5C 8322  
2304b 6A5E 0006  
2305b           *--------------------------------------------------------------
2306b           * Determine TI-99/4A operating system version
2307b           *--------------------------------------------------------------         
2308b 6A60 06A0         BL    @CPYG2M               ; Read GROM >0480 into TMP0
2308b 6A62 6152  
2309b 6A64 0480         DATA  >0480,R3HB,2        
2309b 6A66 8306  
2309b 6A68 0002  
2310b 6A6A 8803         C     R3,@TMP004            ; Check for TI-99/4
2310b 6A6C 6AC4  
2311b 6A6E 1304         JEQ   RUNLI8
2312b 6A70 8803         C     R3,@TMP005            ; Check for TI-99/4A V2.2
2312b 6A72 6AC6  
2313b 6A74 1303         JEQ   RUNLI9
2314b 6A76 1004         JMP   RUNLIA                ; It's a TI-99/4A v1
2315b           *--------------------------------------------------------------
2316b           *    It's a TI-99/4 .... PANIC !
2317b           *--------------------------------------------------------------          
2318b 6A78 0701 RUNLI8  SETO  R1                    ; Set reset flag
2319b 6A7A 10C9         JMP   RUNLI1                ; Bye bye
2320b           *--------------------------------------------------------------
2321b           *    It's a TI-99/4A v2.2
2322b           *--------------------------------------------------------------          
2323b 6A7C 026C RUNLI9  ORI   CONFIG,V22OS          ; Set V2.2 flag        
2323b 6A7E 0020  
2324b           *--------------------------------------------------------------
2325b           * Initialize registers, memory, ...
2326b           *--------------------------------------------------------------             
2327b 6A80 04C1 RUNLIA  CLR   R1
2328b 6A82 04C2         CLR   R2
2329b 6A84 04C3         CLR   R3
2330b 6A86 0209         LI    STACK,>8400           ; Set stack
2330b 6A88 8400  
2331b 6A8A 020F         LI    R15,VDPW              ; Set VDP write address
2331b 6A8C 8C00  
2332b 6A8E 06A0         BL    @MUTE                 ; Mute sound generators                
2332b 6A90 652C  
2333b           *--------------------------------------------------------------
2334b           * Setup video memory
2335b           *--------------------------------------------------------------
2336b 6A92 06A0         BL    @VIDTAB               ; Load video mode table into VDP
2336b 6A94 61D8  
2337b 6A96 6054         DATA  SPVMOD                ; See VIDTAB for details
2338b 6A98 06A0         BL    @FILV
2338b 6A9A 6098  
2339b 6A9C 0000         DATA  >0000,>00,16000       ; Clear VDP memory 
2339b 6A9E 0000  
2339b 6AA0 3E80  
2340b 6AA2 06A0         BL    @FILV
2340b 6AA4 6098  
2341b 6AA6 0380         DATA  >0380,SPFCLR,16       ; Load color table
2341b 6AA8 00A0  
2341b 6AAA 0010  
2342b           *--------------------------------------------------------------
2343b           * Load font
2344b           *--------------------------------------------------------------        
2345b 6AAC 0204         LI    TMP0,SPFONT           ; Get font option
2345b 6AAE 800C  
2346b 6AB0 0544         INV   TMP0                  ; NOFONT (>FFFF) specified ?
2347b 6AB2 1304         JEQ   RUNLIC                ; Yes, skip it
2348b 6AB4 06A0         BL    @LDFNT
2348b 6AB6 62F6  
2349b 6AB8 0900         DATA  >0900,SPFONT          ; Load specified font                
2349b 6ABA 800C  
2350b           *--------------------------------------------------------------
2351b           * Branch to main program
2352b           *--------------------------------------------------------------                        
2353b 6ABC 026C RUNLIC  ORI   CONFIG,ENKNL          ; Enable kernel thread                
2353b 6ABE 0040  
2354b 6AC0 0460         B     @MAIN                 ; Give control to main program
2354b 6AC2 6AC8  
2355b 6AC4 48FC TMP004  DATA  >48FC                 ; TI-99/4   1979
2356b 6AC6 5632 TMP005  DATA  >5632                 ; TI-99/4A  1983  V2.2
2357b           *       DATA  >0A01                 ; TI-99/4A  1981  V1        
2358b           * :..
2359b                   
->End Level [b] *               'D:\Projekte\spectra2\tms9900\runlib.a99'
  25            *--------------------------------------------------------------
  26            * SPECTRA2 startup options
  27            *--------------------------------------------------------------
  28  0000 6054 SPVMOD  EQU   GRAPH1                ; Video mode.   See VIDTAB for details.
  29  0000 800C SPFONT  EQU   FNOPT7                ; Font to load. See LDFONT for details.
  30  0000 00A0 SPFCLR  EQU   >A0                   ; Foreground/Background color for font.
  31  0000 0001 SPFBCK  EQU   >01                   ; Screen background color.        
  32            *--------------------------------------------------------------
  33            * Game memory setup
  34            *--------------------------------------------------------------
  35  0000 8340 SCORE   EQU   >8340                 ; Score
  36  0000 8342 LIVES   EQU   >8342                 ; Lives
  37  0000 8344 LEVEL   EQU   >8344                 ; Level
  38  0000 8346 GASTAT  EQU   >8346                 ; Game status flags
  39  0000 8348 BSPEED  EQU   >8348                 ; Killer bee speed variable
  40  0000 834A BUFFER  EQU   >834A                 ; Working buffer (6 bytes)
  41  0000 8350 TIMERS  EQU   >8350                 ; Timer table
  42  0000 8370 RAMSAT  EQU   >8370                 ; Our SAT in scratchpad memory
  43  0000 834A COUNTER EQU   BUFFER                ; Temporary counter
  44            ***************************************************************
  45            * Initial game setup
  46            ********@*****@*********************@**************************
  47  6AC8 06A0 MAIN    BL    @CPYM2V
  47  6ACA 610A  
  48  6ACC 0808         DATA  >0808,TLTPAT,8*8      ; Load patterns for title letters
  48  6ACE 7265  
  48  6AD0 0040  
  49  6AD2 06A0         BL    @CPYM2V
  49  6AD4 610A  
  50  6AD6 0908         DATA  >0908,LETTRS,73*8     ; Load font into VDP
  50  6AD8 72A5  
  50  6ADA 0248  
  51  6ADC 06A0         BL    @FILV
  51  6ADE 6098  
  52  6AE0 0380         DATA  >0380,>1A,16          ; Fill color table
  52  6AE2 001A  
  52  6AE4 0010  
  53  6AE6 06A0         BL    @PUTVR
  53  6AE8 6212  
  54  6AEA 070A         DATA  >070A                 ; VDP#7 - Set background color
  55  6AEC 06A0         BL    @CPYM2V
  55  6AEE 610A  
  56  6AF0 1000         DATA  >1000,SPRPAT,11*32    ; Load sprite patterns into VDP
  56  6AF2 74E5  
  56  6AF4 0160  
  57            *--------------------------------------------------------------
  58            *    Initialise variables
  59            *--------------------------------------------------------------        
  60  6AF6 04E0         CLR   @SCORE                ; Score 0
  60  6AF8 8340  
  61  6AFA 0200         LI    R0,1
  61  6AFC 0001  
  62  6AFE C800         MOV   R0,@LEVEL             ; Level 1
  62  6B00 8344  
  63  6B02 0200         LI    R0,3
  63  6B04 0003  
  64  6B06 C800         MOV   R0,@LIVES             ; 3 Lives    
  64  6B08 8342  
  65  6B0A 04E0         CLR   @GASTAT               ; Clear all game flags
  65  6B0C 8346  
  66  6B0E 0200         LI    R0,>0400
  66  6B10 0400  
  67  6B12 C800         MOV   R0,@BSPEED            ; Killer bee start speed
  67  6B14 8348  
  68            *--------------------------------------------------------------
  69            *    Game
  70            *--------------------------------------------------------------
  71  Level [b] *       COPY    'hc_source1.a99'
   1b           ***************************************************************
   2b           * Honeycomb Rapture - (c) 2010 by Owen Brand
   3b           *
   4b           * Cartridge conversion by Retroclouds
   5b           *
   6b           * This file: hc_source1.a99
   7b           ***************************************************************
   8b           * Title Screen
   9b           ********@*****@*********************@**************************
  10b 6B16 06A0         BL    @PUTAT                 
  10b 6B18 6398  
  11b 6B1A 0200         DATA  >0200,TITLE1          ; Y=2  X=0 - Honeycomb
  11b 6B1C 70BA  
  12b 6B1E 06A0         BL    @PUTAT
  12b 6B20 6398  
  13b 6B22 0A00         DATA  >0A00,TITLE2          ; Y=10 X=0 - Rapture        
  13b 6B24 719B  
  14b 6B26 06A0         BL    @PUTAT
  14b 6B28 6398  
  15b 6B2A 1308         DATA  >1308,TXT1            ; Y=19 X=8  'PRESS ANY KEY TO'
  15b 6B2C 6FC2  
  16b 6B2E 06A0         BL    @PUTAT
  16b 6B30 6398  
  17b 6B32 140C         DATA  >140C,TXT2            ; Y=20 X=12 'CONTINUE'
  17b 6B34 6FD3  
  18b 6B36 06A0         BL    @CPYM2M
  18b 6B38 60C0  
  19b 6B3A 6FAA         DATA  SPRSAT,RAMSAT,4       ; Copy SAT from ROM to RAM                
  19b 6B3C 8370  
  19b 6B3E 0004  
  20b           *--------------------------------------------------------------
  21b           *    Prepare tune & timers
  22b           *--------------------------------------------------------------
  23b 6B40 06A0         BL    @SDPREP
  23b 6B42 654A  
  24b 6B44 7605         DATA  SOUND1,SDOPT1         ; Prepare tune for playing
  24b 6B46 0007  
  25b 6B48 C820         MOV   @TIMTAB,@WTITAB       ; Set pointer to timer table        
  25b 6B4A 6FA8  
  25b 6B4C 832C  
  26b 6B4E 06A0         BL    @MKSLOT               ; Create slots
  26b 6B50 6988  
  27b 6B52 0001         DATA  >0001,DMPSAT          ; Slot 0 = Dump to VDP
  27b 6B54 6CCE  
  28b 6B56 0101         DATA  >0101,MVPLAN          ; Slot 1 = Move plane
  28b 6B58 6E86  
  29b 6B5A 0201         DATA  >0201,START,EOL       ; Slot 2 = Wait for game start
  29b 6B5C 6B68  
  29b 6B5E FFFF  
  30b 6B60 D2A0         MOVB  @BD2,R10              ; Set highest slot in use
  30b 6B62 604A  
  31b 6B64 0460         B     @TMGR                 ; Start timer manager
  31b 6B66 68E8  
  32b           
  33b           ***************************************************************
  34b           * Thread START - Wait for game start
  35b           ***************************************************************        
  36b 6B68 2320 START   COC   @WBIT11,R12           ; ANY key pressed ?
  36b 6B6A 603C  
  37b 6B6C 1301         JEQ   START1                ; Start game
  38b 6B6E 045B         B     *R11                  ; Exit                
  39b 6B70 0460 START1  B     @GAME
  39b 6B72 6B74  
  40b           
->End Level [b] *               'hc_source1.a99'
  72  Level [b] *       COPY    'hc_source2.a99'
   1b           ***************************************************************
   2b           * Honeycomb Rapture - (c) 2010 by Owen Brand
   3b           *
   4b           * Cartridge conversion by Retroclouds
   5b           *
   6b           * This file: hc_source2.a99
   7b           ***************************************************************
   8b           * Game
   9b           ********@*****@*********************@**************************
  10b           
  11b           ***************************************************************
  12b           * Setup game screen
  13b           ********@*****@*********************@**************************
  14b 6B74 06A0 GAME    BL    @SCROFF               ; Screen off
  14b 6B76 6240  
  15b 6B78 06A0         BL    @FILV
  15b 6B7A 6098  
  16b 6B7C 0000         DATA  >0000,00,768          ; Fill screen        
  16b 6B7E 0000  
  16b 6B80 0300  
  17b 6B82 06A0         BL    @CPYM2M
  17b 6B84 60C0  
  18b 6B86 6FAA         DATA  SPRSAT,RAMSAT,6*4     ; Copy SAT from ROM to RAM                        
  18b 6B88 8370  
  18b 6B8A 0018  
  19b 6B8C 0204         LI    TMP0,>0700            ; Y=>07 X=>00
  19b 6B8E 0700  
  20b 6B90 C804         MOV   TMP0,@RAMSAT          ; Reposition sprite plane
  20b 6B92 8370  
  21b 6B94 06A0         BL    @FILV
  21b 6B96 6098  
  22b 6B98 0000         DATA  >0000,32,7*32
  22b 6B9A 0020  
  22b 6B9C 00E0  
  23b 6B9E 06A0         BL    @PUTAT
  23b 6BA0 6398  
  24b 6BA2 0002         DATA  >0002,TXT3            ; Display text 'Score'
  24b 6BA4 6FDC  
  25b 6BA6 06A0         BL    @PUTAT
  25b 6BA8 6398  
  26b 6BAA 000E         DATA  >000E,TXT4            ; Display text 'Level'
  26b 6BAC 6FE2  
  27b 6BAE 06A0         BL    @PUTAT
  27b 6BB0 6398  
  28b 6BB2 0018         DATA  >0018,TXT5            ; Display text 'Lives'                
  28b 6BB4 6FE8  
  29b           *--------------------------------------------------------------
  30b           *    Draw honeycomb & flower bed
  31b           *--------------------------------------------------------------        
  32b 6BB6 06A0         BL    @PUTBOX
  32b 6BB8 6444  
  33b 6BBA 071B         DATA  >071B,>0202,HCOMB
  33b 6BBC 0202  
  33b 6BBE 6FF8  
  34b 6BC0 1103         DATA  >1103,>0303,FLOWER
  34b 6BC2 0303  
  34b 6BC4 6FEE  
  35b 6BC6 1107         DATA  >1107,>0303,FLOWER
  35b 6BC8 0303  
  35b 6BCA 6FEE  
  36b 6BCC 110B         DATA  >110B,>0303,FLOWER
  36b 6BCE 0303  
  36b 6BD0 6FEE  
  37b 6BD2 110F         DATA  >110F,>0303,FLOWER
  37b 6BD4 0303  
  37b 6BD6 6FEE  
  38b 6BD8 1113         DATA  >1113,>0303,FLOWER        
  38b 6BDA 0303  
  38b 6BDC 6FEE  
  39b 6BDE 1117         DATA  >1117,>0303,FLOWER
  39b 6BE0 0303  
  39b 6BE2 6FEE  
  40b 6BE4 111B         DATA  >111B,>0303,FLOWER        
  40b 6BE6 0303  
  40b 6BE8 6FEE  
  41b 6BEA 1401         DATA  >1401,>0303,FLOWER
  41b 6BEC 0303  
  41b 6BEE 6FEE  
  42b 6BF0 1405         DATA  >1405,>0303,FLOWER
  42b 6BF2 0303  
  42b 6BF4 6FEE  
  43b 6BF6 1409         DATA  >1409,>0303,FLOWER
  43b 6BF8 0303  
  43b 6BFA 6FEE  
  44b 6BFC 140D         DATA  >140D,>0303,FLOWER
  44b 6BFE 0303  
  44b 6C00 6FEE  
  45b 6C02 1411         DATA  >1411,>0303,FLOWER      
  45b 6C04 0303  
  45b 6C06 6FEE  
  46b 6C08 1415         DATA  >1415,>0303,FLOWER
  46b 6C0A 0303  
  46b 6C0C 6FEE  
  47b 6C0E 1419         DATA  >1419,>0303,FLOWER,EOL
  47b 6C10 0303  
  47b 6C12 6FEE  
  47b 6C14 FFFF  
  48b 6C16 06A0         BL    @VCHAR
  48b 6C18 63C8  
  49b 6C1A 1404         DATA  >1404,>5B03
  49b 6C1C 5B03  
  50b 6C1E 1408         DATA  >1408,>5B03
  50b 6C20 5B03  
  51b 6C22 140C         DATA  >140C,>5B03
  51b 6C24 5B03  
  52b 6C26 1410         DATA  >1410,>5B03
  52b 6C28 5B03  
  53b 6C2A 1414         DATA  >1414,>5B03
  53b 6C2C 5B03  
  54b 6C2E 1418         DATA  >1418,>5B03
  54b 6C30 5B03  
  55b 6C32 141C         DATA  >141C,>5B03,EOL        
  55b 6C34 5B03  
  55b 6C36 FFFF  
  56b           *--------------------------------------------------------------
  57b           *  Display game stats (Score, Level, Lives)
  58b           *--------------------------------------------------------------
  59b 6C38 06A0 GAME1   BL    @PUTNUM               ; Display score, fill with '0'
  59b 6C3A 6522  
  60b 6C3C 0102         DATA  >0102,SCORE,BUFFER,>3030 
  60b 6C3E 8340  
  60b 6C40 834A  
  60b 6C42 3030  
  61b 6C44 06A0         BL    @PUTNUM               ; Display level, fill with ' '
  61b 6C46 6522  
  62b 6C48 010C         DATA  >010C,LEVEL,BUFFER,>3020
  62b 6C4A 8344  
  62b 6C4C 834A  
  62b 6C4E 3020  
  63b 6C50 06A0         BL    @PUTNUM               ; Display lives, fill with ' '  
  63b 6C52 6522  
  64b 6C54 0116         DATA  >0116,LIVES,BUFFER,>3020
  64b 6C56 8342  
  64b 6C58 834A  
  64b 6C5A 3020  
  65b 6C5C 06A0         BL    @MKSLOT
  65b 6C5E 6988  
  66b 6C60 0201         DATA  >0201,MVBEE
  66b 6C62 6D26  
  67b 6C64 0302         DATA  >0302,MVKBEE
  67b 6C66 6E24  
  68b 6C68 0402         DATA  >0402,MVKBEE
  68b 6C6A 6E24  
  69b 6C6C 0501         DATA  >0501,MVKBEE
  69b 6C6E 6E24  
  70b 6C70 0630         DATA  >0630,CLRMSG,EOL      ; Allocate timer slots
  70b 6C72 6E9E  
  70b 6C74 FFFF  
  71b 6C76 D2A0         MOVB  @BD6,R10              ; Set highest slot in use        
  71b 6C78 604E  
  72b 6C7A 06A0         BL    @MKHOOK
  72b 6C7C 69D4  
  73b 6C7E 6C92         DATA  COINC
  74b 6C80 06A0         BL    @CPYM2V
  74b 6C82 610A  
  75b 6C84 0380         DATA  >0380,COLORS,16       ; Load color table into VDP        
  75b 6C86 709A  
  75b 6C88 0010  
  76b 6C8A 06A0         BL    @SCRON                ; Screen on
  76b 6C8C 6246  
  77b 6C8E 0460 GAME2   B     @TMGR
  77b 6C90 68E8  
  78b           
  79b                 
  80b           
  81b           ***************************************************************
  82b           * User hook - Check for coincidence
  83b           ***************************************************************
  84b 6C92 2360 COINC   COC  @WBIT2,R13             ; Coincidence bit set ?
  84b 6C94 602A  
  85b 6C96 1619         JNE  COINCZ                 ; No, exit
  86b 6C98 C020         MOV  @GASTAT,R0             ; Sequence already busy
  86b 6C9A 8346  
  87b 6C9C 2020         COC  @WBIT0,R0
  87b 6C9E 6026  
  88b 6CA0 1314         JEQ  COINCZ
  89b           *--------------------------------------------------------------
  90b           * Bee gets killed by killer bee
  91b           *--------------------------------------------------------------        
  92b 6CA2 06A0         BL    @MUTE2                ; Pause sound player
  92b 6CA4 6530  
  93b 6CA6 E820         SOC   @WBIT0,@GASTAT        ; Bee killed = 1
  93b 6CA8 6026  
  93b 6CAA 8346  
  94b 6CAC 06A0         BL    @CPYM2V
  94b 6CAE 610A  
  95b 6CB0 0380         DATA  >0380,COLOR2,16       ; Load 2nd color table into VDP
  95b 6CB2 70AA  
  95b 6CB4 0010  
  96b 6CB6 06A0         BL    @PUTVR
  96b 6CB8 6212  
  97b 6CBA 0706         DATA  >0706                 ; VDP#7 - Set background color
  98b 6CBC 06A0         BL    @MKSLOT        
  98b 6CBE 6988  
  99b 6CC0 0207         DATA  >0207,SPNBEE,EOL      ; Start "spin bee" sequence
  99b 6CC2 6E3E  
  99b 6CC4 FFFF  
 100b 6CC6 04E0         CLR   @COUNTER
 100b 6CC8 834A  
 101b 6CCA 0460 COINCZ  B     @HOOKOK               ; Exit
 101b 6CCC 68EC  
 102b           
 103b           
 104b           ***************************************************************
 105b           * Thread DMPSAT - Dump SAT to VDP
 106b           ***************************************************************
 107b 6CCE C060 DMPSAT  MOV   @GASTAT,R1            ; Get game status flags        
 107b 6CD0 8346  
 108b 6CD2 2060         COC   @WBIT0,R1             ; Bee kill sequence busy ?
 108b 6CD4 6026  
 109b 6CD6 1306         JEQ   DMPSA1        
 110b           *--------------------------------------------------------------
 111b           *  Dump SAT containing killer bees
 112b           *--------------------------------------------------------------               
 113b 6CD8 06A0         BL    @CPYM2V
 113b 6CDA 610A  
 114b 6CDC 0300         DATA  >0300,RAMSAT,6*4      ; Dump SAT to VDP           
 114b 6CDE 8370  
 114b 6CE0 0018  
 115b 6CE2 100A         JMP   DMPSAZ
 116b           *--------------------------------------------------------------
 117b           *  Dump SAT for bee died sequence
 118b           *--------------------------------------------------------------       
 119b 6CE4 06A0 DMPSA1  BL    @CPYM2V
 119b 6CE6 610A  
 120b 6CE8 0300         DATA  >0300,RAMSAT,2*4      ; Dump SAT to VDP      
 120b 6CEA 8370  
 120b 6CEC 0008  
 121b 6CEE 06A0         BL    @FILV
 121b 6CF0 6098  
 122b 6CF2 0308         DATA  >0308,>D0,1           ; End of sprite processing     
 122b 6CF4 00D0  
 122b 6CF6 0001  
 123b 6CF8 0460 DMPSAZ  B     @SLOTOK               ; Exit
 123b 6CFA 696A  
 124b           
 125b           
 126b           
 127b           
 128b           ********@*****@*********************@**************************
 129b 6CFC A820 DOSCOR  A     @ADD100,@SCORE
 129b 6CFE 6E22  
 129b 6D00 8340  
 130b 6D02 06A0         BL    @PUTNUM               ; Display score, fill with '0'
 130b 6D04 6522  
 131b 6D06 0102         DATA  >0102,SCORE,BUFFER,>3030 
 131b 6D08 8340  
 131b 6D0A 834A  
 131b 6D0C 3030  
 132b 6D0E C820         MOV   @SPRSAT+4,@RAMSAT+4   ; Restore bee start position  
 132b 6D10 6FAE  
 132b 6D12 8374  
 133b 6D14 7820         SB    @BD1,@BSPEED          ; Increase killer bee speed
 133b 6D16 6049  
 133b 6D18 8348  
 134b 6D1A 06A0         BL    @SDPREP
 134b 6D1C 654A  
 135b 6D1E 78E3         DATA  SOUND3,SDOPT2         ; Start "score" tune        
 135b 6D20 0005  
 136b 6D22 0460         B     @SLOTOK               ; Return to Thread Scheduler
 136b 6D24 696A  
 137b           
 138b           
 139b           ***************************************************************
 140b           * Thread MVBEE - Move the bee
 141b           ***************************************************************
 142b 6D26 2320 MVBEE   COC   @WBIT11,CONFIG        ; ANY key pressed ?
 142b 6D28 603C  
 143b 6D2A 1304         JEQ   MVBEE1                ; Yes, check keys
 144b 6D2C C820         MOV   @MVLIST+40,@RAMSAT+6  ; Update pattern/color
 144b 6D2E 6E12  
 144b 6D30 8376  
 145b 6D32 045B         B     *R11                  ; Exit
 146b 6D34 C120 MVBEE1  MOV   @WVRTKB,TMP0          ; Get keyboard flags    
 146b 6D36 8332  
 147b 6D38 0205         LI    TMP1,MVLIST           ; List
 147b 6D3A 6DEA  
 148b 6D3C 0206         LI    TMP2,8                ; List counter
 148b 6D3E 0008  
 149b           *--------------------------------------------------------------
 150b           *    Check direction
 151b           *--------------------------------------------------------------        
 152b 6D40 2115 MVBEE2  COC   *TMP1,TMP0
 153b 6D42 1608         JNE   MVBEE3
 154b 6D44 4135         SZC   *TMP1+,TMP0           ; Remove this key combination
 155b 6D46 B835         AB    *TMP1+,@RAMSAT+4      ; Update Y
 155b 6D48 8374  
 156b 6D4A B835         AB    *TMP1+,@RAMSAT+5      ; Update X
 156b 6D4C 8375  
 157b 6D4E C835         MOV   *TMP1+,@RAMSAT+6      ; Update pattern/color
 157b 6D50 8376  
 158b 6D52 1002         JMP   MVBEE4
 159b 6D54 0225 MVBEE3  AI    TMP1,6
 159b 6D56 0006  
 160b 6D58 0606 MVBEE4  DEC   TMP2
 161b 6D5A 16F2         JNE   MVBEE2
 162b           *--------------------------------------------------------------
 163b           *    Prepare for checking Y-boundaries
 164b           *--------------------------------------------------------------
 165b 6D5C 024C         ANDI  CONFIG,>7FFF          ; CONFIG register bit 0=0
 165b 6D5E 7FFF  
 166b 6D60 C120         MOV   @RAMSAT+4,TMP0        ; Sprite YX in TMP0
 166b 6D62 8374  
 167b 6D64 C160         MOV   @MVLIM,TMP1           ; Get Y-boundaries
 167b 6D66 6E1A  
 168b           *--------------------------------------------------------------
 169b           *       Compare boundaries
 170b           *--------------------------------------------------------------
 171b 6D68 9144 MVBEE5  CB    TMP0,TMP1             ; Compare min
 172b 6D6A 1401         JHE   MVBEE6
 173b 6D6C D105         MOVB  TMP1,TMP0             ; Set sprite min
 174b 6D6E 06C5 MVBEE6  SWPB  TMP1                  ; Swap min/max
 175b 6D70 9144         CB    TMP0,TMP1             ; Compare max        
 176b 6D72 1201         JLE   MVBEE7
 177b 6D74 D105         MOVB  TMP1,TMP0             ; Set sprite max
 178b           *--------------------------------------------------------------
 179b           *    Prepare for checking X-boundaries
 180b           *--------------------------------------------------------------       
 181b 6D76 2320 MVBEE7  COC   @WBIT0,CONFIG         ; X-already checked ?
 181b 6D78 6026  
 182b 6D7A 1306         JEQ   MVBEE8
 183b 6D7C 026C         ORI   CONFIG,>8000          ; CONFIG register bit 0=1
 183b 6D7E 8000  
 184b 6D80 06C4         SWPB  TMP0                  ; Bee YX -> XY
 185b 6D82 C160         MOV   @MVLIM+2,TMP1         ; Get X-boundaries
 185b 6D84 6E1C  
 186b 6D86 10F0         JMP   MVBEE5
 187b           *--------------------------------------------------------------
 188b           *    Update RAMSAT
 189b           *--------------------------------------------------------------         
 190b 6D88 06C4 MVBEE8  SWPB  TMP0                  ; Bee XY -> YX
 191b 6D8A C804         MOV   TMP0,@RAMSAT+4        ; Save updated YX in RAMSAT
 191b 6D8C 8374  
 192b 6D8E 024C         ANDI  CONFIG,>7FFF          ; CONFIG register bit 0=0
 192b 6D90 7FFF  
 193b           *--------------------------------------------------------------
 194b           *    Check if bee reached honeycomb
 195b           *-------------------------------------------------------------- 
 196b 6D92 9804 MVBEE9  CB    TMP0,@MVCOMB          ; Y position greater than >48 ?
 196b 6D94 6E1E  
 197b 6D96 1527         JGT   MVBEEZ
 198b 6D98 0A84         SLA   TMP0,8
 199b 6D9A 9804         CB    TMP0,@MVCOMB+1        ; X position less than >D0 ?
 199b 6D9C 6E1F  
 200b 6D9E 1123         JLT   MVBEEZ
 201b 6DA0 9804         CB    TMP0,@MVCOMB+2        ; X position greater than >E0 ?
 201b 6DA2 6E20  
 202b 6DA4 1520         JGT   MVBEEZ
 203b           *--------------------------------------------------------------
 204b           *    Yes, now update score
 205b           *--------------------------------------------------------------         
 206b 6DA6 A820         A     @ADD100,@SCORE
 206b 6DA8 6E22  
 206b 6DAA 8340  
 207b 6DAC 06A0         BL    @PUTNUM               ; Display score, fill with '0'
 207b 6DAE 6522  
 208b 6DB0 0102         DATA  >0102,SCORE,BUFFER,>3030 
 208b 6DB2 8340  
 208b 6DB4 834A  
 208b 6DB6 3030  
 209b 6DB8 C820         MOV   @SPRSAT+4,@RAMSAT+4   ; Restore bee start position  
 209b 6DBA 6FAE  
 209b 6DBC 8374  
 210b 6DBE 7820         SB    @BD1,@BSPEED          ; Increase killer bee speed
 210b 6DC0 6049  
 210b 6DC2 8348  
 211b 6DC4 06A0         BL    @SDPREP
 211b 6DC6 654A  
 212b 6DC8 78E3         DATA  SOUND3,SDOPT2         ; Start "score" tune        
 212b 6DCA 0005  
 213b 6DCC 06A0         BL    @MKSLOT
 213b 6DCE 6988  
 214b 6DD0 0630         DATA  >0630,MVBEEY,EOL      ; Restart "game" tune in 1 second
 214b 6DD2 6DD8  
 214b 6DD4 FFFF  
 215b 6DD6 1007         JMP   MVBEEZ
 216b           *--------------------------------------------------------------
 217b           *    Restart "game" tune
 218b           *--------------------------------------------------------------             
 219b 6DD8 06A0 MVBEEY  BL    @SDPREP
 219b 6DDA 654A  
 220b 6DDC 7605         DATA  SOUND1,SDOPT1         ; Start tune
 220b 6DDE 0007  
 221b 6DE0 06A0         BL    @CLSLOT               ; Clear slot
 221b 6DE2 69A6  
 222b 6DE4 0006         DATA  6
 223b           *--------------------------------------------------------------
 224b           *    Exit
 225b           *--------------------------------------------------------------     
 226b 6DE6 0460 MVBEEZ  B     @SLOTOK               ; Exit        
 226b 6DE8 696A  
 227b 6DEA 0280 MVLIST  DATA  K1UPLF,>FFFF,>2001    ; Up-left
 227b 6DEC FFFF  
 227b 6DEE 2001  
 228b 6DF0 0180         DATA  K1UPRG,>FF01,>0801    ; Up-right
 228b 6DF2 FF01  
 228b 6DF4 0801  
 229b 6DF6 0240         DATA  K1DNLF,>01FF,>1801    ; Down-left   
 229b 6DF8 01FF  
 229b 6DFA 1801  
 230b 6DFC 0140         DATA  K1DNRG,>0101,>1001    ; Down-right
 230b 6DFE 0101  
 230b 6E00 1001  
 231b 6E02 0200         DATA  K1LF,>00FF,>1C01      ; Left
 231b 6E04 00FF  
 231b 6E06 1C01  
 232b 6E08 0100         DATA  K1RG,>0001,>0C01      ; Right
 232b 6E0A 0001  
 232b 6E0C 0C01  
 233b 6E0E 0080         DATA  K1UP,>FF00,>0401      ; Up         
 233b 6E10 FF00  
 233b 6E12 0401  
 234b 6E14 0040         DATA  K1DN,>0100,>1401      ; Down
 234b 6E16 0100  
 234b 6E18 1401  
 235b 6E1A 38A7 MVLIM   DATA  >38A7,>05F0           ; Bee screen boundaries (y-min,y-max,x-min,x-max)       
 235b 6E1C 05F0  
 236b 6E1E 40D4 MVCOMB  BYTE  >40,>D4,>DC,>00       ; Honeycomb boundaries  (y-max,X-min,x-max,dummy)
 236b 6E20 DC00  
 237b 6E22 0064 ADD100  DATA 100                    ; 100 points
 238b           
 239b           ***************************************************************
 240b           * Thread MVKBEE - Move the killer bees
 241b           ***************************************************************
 242b 6E24 C10A MVKBEE  MOV  R10,TMP0               ; Get slot number
 243b 6E26 0244         ANDI TMP0,>00FF             ; Get rid of high byte
 243b 6E28 00FF  
 244b           *--------------------------------------------------------------
 245b           *  index = ((slot - 1) << 2) + 1
 246b           *--------------------------------------------------------------         
 247b 6E2A 0604         DEC  TMP0,1                 ; index = slot - 1
 248b 6E2C 0A24         SLA  TMP0,2                 ; index << 2
 249b 6E2E 0584         INC  TMP0                   ; index++ 
 250b 6E30 C14A         MOV  R10,TMP1               ; Get slot number
 251b 6E32 6160         S    @BSPEED,TMP1           ; Higher slots go faster
 251b 6E34 8348  
 252b 6E36 0915         SRL  TMP1,1
 253b 6E38 7905         SB   TMP1,@RAMSAT(TMP0)     ; RAMSAT address of killer bee X position
 253b 6E3A 8370  
 254b 6E3C 045B         B    *R11
 255b           
 256b           ***************************************************************
 257b           * Thread SPNBEE - Do spin bee sequence
 258b           ********@*****@*********************@************************** 
 259b 6E3E C820 SPNBEE  MOV   @BEEPOS,@RAMSAT+4     ; Reposition bee
 259b 6E40 6E84  
 259b 6E42 8374  
 260b 6E44 C060         MOV   @COUNTER,R1
 260b 6E46 834A  
 261b 6E48 0281         CI    R1,2                  ; Already spinned 2 times ?
 261b 6E4A 0002  
 262b 6E4C 160B         JNE   SPNBE1                ; No continue                
 263b           *--------------------------------------------------------------
 264b           *  Show message "Oops be careful"
 265b           *--------------------------------------------------------------          
 266b 6E4E 06A0         BL    @PUTAT
 266b 6E50 6398  
 267b 6E52 0508         DATA  >0508,OOPS            ; Ooops be careful....
 267b 6E54 6FFD  
 268b 6E56 06A0         BL    @MKSLOT        
 268b 6E58 6988  
 269b 6E5A 0240         DATA  >0240,GOGAME,EOL      ; Set delay   
 269b 6E5C 6EB6  
 269b 6E5E FFFF  
 270b 6E60 0460         B     @SLOTOK               ; Exit
 270b 6E62 696A  
 271b           *--------------------------------------------------------------
 272b           *  Spin the bee
 273b           *--------------------------------------------------------------                  
 274b 6E64 04C1 SPNBE1  CLR   R1
 275b 6E66 D060         MOVB  @RAMSAT+6,R1
 275b 6E68 8376  
 276b 6E6A 0281         CI    R1,>2000              ; Last pattern ?
 276b 6E6C 2000  
 277b 6E6E 1605         JNE   SPNBE2
 278b 6E70 0201         LI    R1,>0400
 278b 6E72 0400  
 279b 6E74 05A0         INC   @COUNTER              ; Counter = Counter + 1
 279b 6E76 834A  
 280b 6E78 1002         JMP   SPNBE3
 281b 6E7A 0221 SPNBE2  AI    R1,>0400              ; pattern = pattern + 4
 281b 6E7C 0400  
 282b 6E7E D801 SPNBE3  MOVB  R1,@RAMSAT+6
 282b 6E80 8376  
 283b 6E82 045B         B     *R11                  ; Exit        
 284b 6E84 5A78 BEEPOS  DATA  >5A78                 ; Y=90, X=120
 285b           
 286b           
 287b           ***************************************************************
 288b           * Thread MVPLAN - Move plane accross the screen
 289b           ***************************************************************
 290b 6E86 9820 MVPLAN  CB    @RAMSAT+1,@TMPDAT     ; Screen boundary reached ?
 290b 6E88 8371  
 290b 6E8A 6E9C  
 291b 6E8C 1303         JEQ   MVPLA1                ; Yes, X=0
 292b 6E8E 05A0         INC   @RAMSAT               ; No,  X=X+1
 292b 6E90 8370  
 293b 6E92 1003         JMP   MVPLA2                ; Exit
 294b 6E94 D820 MVPLA1  MOVB  @BD0,@RAMSAT+1        ; X=0
 294b 6E96 6048  
 294b 6E98 8371  
 295b 6E9A 045B MVPLA2  B     *R11                  ; Exit
 296b 6E9C FE00 TMPDAT  DATA  >FE00        
 297b           
 298b           
 299b           **************************************************************
 300b           * Thread CLRMSG - Clear message
 301b           ********@*****@*********************@**************************
 302b 6E9E 06A0 CLRMSG  BL    @HCHAR        
 302b 6EA0 63A0  
 303b 6EA2 0508         DATA  >0508,>200F           ; Clear 1st message line
 303b 6EA4 200F  
 304b 6EA6 060A         DATA  >060A,>200F,EOL       ; Clear 2nd message line
 304b 6EA8 200F  
 304b 6EAA FFFF  
 305b 6EAC 06A0         BL    @CLSLOT
 305b 6EAE 69A6  
 306b 6EB0 0006         DATA  6                     ; Clear slot 6
 307b 6EB2 0460         B     @SLOTOK               ; Exit        
 307b 6EB4 696A  
->End Level [b] *               'hc_source2.a99'
  73  Level [b] *       COPY    'hc_source3.a99'
   1b           ***************************************************************
   2b           * Honeycomb Rapture - (c) 2010 by Owen Brand
   3b           *
   4b           * Cartridge conversion by Retroclouds
   5b           *
   6b           * This file: hc_source3.a99
   7b           ***************************************************************
   8b           * Game over
   9b           ********@*****@*********************@**************************
  10b           
  11b                  
  12b           **************************************************************
  13b           * Thread GOGAME - Resume or game over
  14b           ********@*****@*********************@************************** 
  15b 6EB6 0620 GOGAME  DEC   @LIVES                ; Lives = Lives - 1
  15b 6EB8 8342  
  16b 6EBA 1311         JEQ   GOGAM1                ; GAME OVER ?
  17b 6EBC C820         MOV   @SPRSAT+4,@RAMSAT+4   ; Restore bee start position        
  17b 6EBE 6FAE  
  17b 6EC0 8374  
  18b 6EC2 06A0         BL    @PUTAT
  18b 6EC4 6398  
  19b 6EC6 060A         DATA  >060A,GO              ; Here we go ....        
  19b 6EC8 700D  
  20b 6ECA 4820         SZC   @WBIT0,@GASTAT        ; Reset "bee killed" flag
  20b 6ECC 6026  
  20b 6ECE 8346  
  21b 6ED0 E320         SOC   @WBIT13,CONFIG        ; Resume sound player
  21b 6ED2 6040  
  22b 6ED4 06A0         BL    @PUTVR
  22b 6ED6 6212  
  23b 6ED8 070A         DATA  >070A                 ; VDP#7 - Set background color  
  24b 6EDA 0460         B     @GAME1                ; Update stats & resume game              
  24b 6EDC 6C38  
  25b           *--------------------------------------------------------------
  26b           *  Game over
  27b           *--------------------------------------------------------------        
  28b 6EDE 06A0 GOGAM1  BL    @SCROFF               ; Screen off
  28b 6EE0 6240  
  29b 6EE2 06A0         BL    @VPUTB
  29b 6EE4 61B8  
  30b 6EE6 0300         DATA  >0300,>D0             ; End of sprite processing
  30b 6EE8 00D0  
  31b 6EEA 06A0         BL    @FILV
  31b 6EEC 6098  
  32b 6EEE 0000         DATA  >0000,00,768          ; Fill screen        
  32b 6EF0 0000  
  32b 6EF2 0300  
  33b 6EF4 06A0         BL    @FILV
  33b 6EF6 6098  
  34b 6EF8 0380         DATA  >0380,>16,16          ; Set colors black/red
  34b 6EFA 0016  
  34b 6EFC 0010  
  35b 6EFE 06A0         BL    @SCRON                ; Screen on
  35b 6F00 6246  
  36b 6F02 06A0         BL    @MKSLOT
  36b 6F04 6988  
  37b 6F06 0020         DATA  >0020,SHOW1,EOL       ; Display msg with 0.5 seconds interval 
  37b 6F08 6F12  
  37b 6F0A FFFF  
  38b 6F0C 04CA         CLR   R10                   ; Set highest slot to 0  
  39b 6F0E 0460         B     @SLOTOK               ; Back to Thread Scheduler
  39b 6F10 696A  
  40b                   
  41b                   
  42b           ***************************************************************
  43b           * Thread SHOW. - Display "game over" messages
  44b           ********@*****@*********************@************************** 
  45b 6F12 06A0 SHOW1   BL    @PUTAT
  45b 6F14 6398  
  46b 6F16 0505         DATA  >0505,MSG1            ; Line 1                         
  46b 6F18 7018  
  47b 6F1A 06A0         BL    @SDPREP
  47b 6F1C 654A  
  48b 6F1E 789A         DATA  SOUND2,SDOPT2         ; Start "game over" tune
  48b 6F20 0005  
  49b 6F22 C820         MOV   @TMP50,@TIMERS        ; Update slot 0 thread address
  49b 6F24 6F7A  
  49b 6F26 8350  
  50b 6F28 1026         JMP   SHOWZ
  51b 6F2A 06A0 SHOW2   BL    @PUTAT
  51b 6F2C 6398  
  52b 6F2E 0703         DATA  >0703,MSG2            ; Line 2
  52b 6F30 7031  
  53b 6F32 101E         JMP   SHOWY
  54b 6F34 06A0 SHOW3   BL    @PUTAT
  54b 6F36 6398  
  55b 6F38 0905         DATA  >0905,MSG3            ; Line 3
  55b 6F3A 704D  
  56b 6F3C 1019         JMP   SHOWY
  57b 6F3E 06A0 SHOW4   BL    @PUTAT
  57b 6F40 6398  
  58b 6F42 0B09         DATA  >0B09,MSG4            ; Line 4
  58b 6F44 7065  
  59b 6F46 1014         JMP   SHOWY
  60b 6F48 06A0 SHOW5   BL    @PUTAT
  60b 6F4A 6398  
  61b 6F4C 0F07         DATA  >0F07,MSG5            ; Line 5       
  61b 6F4E 7073  
  62b 6F50 06A0         BL    @PUTNUM
  62b 6F52 6522  
  63b 6F54 0F15         DATA  >0F15,SCORE,BUFFER,>3030
  63b 6F56 8340  
  63b 6F58 834A  
  63b 6F5A 3030  
  64b 6F5C 06A0         BL    @MKHOOK
  64b 6F5E 69D4  
  65b 6F60 6F7E         DATA  WAIKEY                ; User hook - restart game when key pressed        
  66b 6F62 06A0         BL    @MKSLOT
  66b 6F64 6988  
  67b 6F66 000A         DATA  >000A,BLKMSG,EOL      ; Blink text "PRESS ANY KEY TO PLAY AGAIN"
  67b 6F68 6F8C  
  67b 6F6A FFFF  
  68b 6F6C 0700         SETO  R0                    ; Use R0 as toggle for BLKMSG
  69b 6F6E 1003         JMP   SHOWZ
  70b           *--------------------------------------------------------------
  71b           *  Update subroutine address in slot 0
  72b           *--------------------------------------------------------------            
  73b 6F70 A820 SHOWY   A     @ADD10,@TIMERS        ; Update slot 0 thread address
  73b 6F72 6F7C  
  73b 6F74 8350  
  74b 6F76 0460 SHOWZ   B     @SLOTOK               ; Back to Thread Scheduler
  74b 6F78 696A  
  75b 6F7A 6F2A TMP50   DATA  SHOW2
  76b 6F7C 000A ADD10   DATA  10                    ; Offset between SHOW1 -> SHOW2 -> SHOW3 -> ... is fixed !!!
  77b           
  78b           
  79b           
  80b           ***************************************************************
  81b           * User hook TSTKEY - Restart game upon keypress
  82b           ********@*****@*********************@************************** 
  83b 6F7E 2320 WAIKEY  COC   @ANYKEY,R12
  83b 6F80 603C  
  84b 6F82 1602         JNE   WAIKE1
  85b 6F84 0460         B     @RUNLIB               ; Restart game
  85b 6F86 6A0A  
  86b 6F88 0460 WAIKE1  B     @HOOKOK
  86b 6F8A 68EC  
  87b           
  88b           ***************************************************************
  89b           * THREAD - Blink message "PRESS ANY KEY TO PLAY AGAIN"
  90b           ********@*****@*********************@************************** 
  91b 6F8C 0540 BLKMSG  INV   R0
  92b 6F8E 1305         JEQ   BLKMS1
  93b 6F90 06A0         BL    @PUTAT
  93b 6F92 6398  
  94b 6F94 1303         DATA  >1303,MSG6            ; Show messsage        
  94b 6F96 707E  
  95b 6F98 1005         JMP   BLKMS2
  96b 6F9A 06A0 BLKMS1  BL    @HCHAR
  96b 6F9C 63A0  
  97b 6F9E 1303         DATA  >1303,>001C,EOL       ; Erase line 6        
  97b 6FA0 001C  
  97b 6FA2 FFFF  
  98b 6FA4 0460 BLKMS2  B     @SLOTOK               ; Exit
  98b 6FA6 696A  
->End Level [b] *               'hc_source3.a99'
  74  Level [b] *       COPY    'hc_source4.a99'
   1b           ***************************************************************
   2b           * Honeycomb Rapture - (c) 2010 by Owen Brand
   3b           *
   4b           * Cartridge conversion by Retroclouds
   5b           *
   6b           * This file: hc_source4.a99
   7b           ***************************************************************
   8b           * Game data
   9b           ********@*****@*********************@**************************
  10b 6FA8 8350 TIMTAB  DATA  >8350                 ; Timer table in scratchpad at >8350
  11b           *--------------------------------------------------------------
  12b           *    Sprite patterns
  13b           *--------------------------------------------------------------        
  14b 6FAA 940A SPRSAT  DATA  >940A,>0001           ; Y=148 X=10, Plane, black
  14b 6FAC 0001  
  15b 6FAE A809         DATA  >A809,>0401           ; Y=168 X=09, Bee,   black
  15b 6FB0 0401  
  16b 6FB2 4950         DATA  >4950,>1C06           ; Y=73        Enemy
  16b 6FB4 1C06  
  17b 6FB6 6190         DATA  >6190,>1C06           ; Y=97        Enemy
  17b 6FB8 1C06  
  18b 6FBA 8010         DATA  >8010,>1C06           ; Y=128       Enemy
  18b 6FBC 1C06  
  19b 6FBE D000         DATA  >D000,>0000           ; No more sprites    
  19b 6FC0 0000  
  20b           *--------------------------------------------------------------
  21b           *    Text to display
  22b           *--------------------------------------------------------------        
  23b 6FC2 10   TXT1    BYTE  16
  24b 6FC3 5052         TEXT  'PRESS ANY KEY TO'     
  24b 6FC5 4553  
  24b 6FC7 5320  
  24b 6FC9 414E  
  24b 6FCB 5920  
  24b 6FCD 4B45  
  24b 6FCF 5920  
  24b 6FD1 544F  
  25b 6FD3 08   TXT2    BYTE  8
  26b 6FD4 434F         TEXT  'CONTINUE'
  26b 6FD6 4E54  
  26b 6FD8 494E  
  26b 6FDA 5545  
  27b 6FDC 05   TXT3    BYTE  5
  28b 6FDD 5343         TEXT  'SCORE'         
  28b 6FDF 4F52  
  28b 6FE1 45    
  29b 6FE2 05   TXT4    BYTE  5
  30b 6FE3 4C45         TEXT  'LEVEL'
  30b 6FE5 5645  
  30b 6FE7 4C    
  31b 6FE8 05   TXT5    BYTE  5
  32b 6FE9 4C49         TEXT  'LIVES'        
  32b 6FEB 5645  
  32b 6FED 53    
  33b 6FEE 09   FLOWER  BYTE  9
  34b 6FEF 6061         TEXT  '`abchdefg'                      ; Flower
  34b 6FF1 6263  
  34b 6FF3 6864  
  34b 6FF5 6566  
  34b 6FF7 67    
  35b 6FF8 04   HCOMB   BYTE  4
  36b 6FF9 5C5D         TEXT  '\]^_'                           ; Honeycomb        
  36b 6FFB 5E5F  
  37b 6FFD 0F   OOPS    BYTE  15
  38b 6FFE 4F4F         TEXT  'OOPS BE CAREFUL'
  38b 7000 5053  
  38b 7002 2042  
  38b 7004 4520  
  38b 7006 4341  
  38b 7008 5245  
  38b 700A 4655  
  38b 700C 4C    
  39b 700D 0A   GO      BYTE  10
  40b 700E 4845         TEXT  'HERE WE GO'
  40b 7010 5245  
  40b 7012 2057  
  40b 7014 4520  
  40b 7016 474F  
  41b 7018 18   MSG1    BYTE  24
  42b 7019 5448         TEXT  'THANK YOU FOR PLAYING...'
  42b 701B 414E  
  42b 701D 4B20  
  42b 701F 594F  
  42b 7021 5520  
  42b 7023 464F  
  42b 7025 5220  
  42b 7027 504C  
  42b 7029 4159  
  42b 702B 494E  
  42b 702D 472E  
  42b 702F 2E2E  
  43b 7031 1B   MSG2    BYTE  27
  44b 7032 594F         TEXT  'YOUR EFFORTS, WHILE VALIANT'
  44b 7034 5552  
  44b 7036 2045  
  44b 7038 4646  
  44b 703A 4F52  
  44b 703C 5453  
  44b 703E 2C20  
  44b 7040 5748  
  44b 7042 494C  
  44b 7044 4520  
  44b 7046 5641  
  44b 7048 4C49  
  44b 704A 414E  
  44b 704C 54    
  45b 704D 17   MSG3    BYTE  23
  46b 704E 5745         TEXT  'WERE NOT ENOUGH TO SAVE'
  46b 7050 5245  
  46b 7052 204E  
  46b 7054 4F54  
  46b 7056 2045  
  46b 7058 4E4F  
  46b 705A 5547  
  46b 705C 4820  
  46b 705E 544F  
  46b 7060 2053  
  46b 7062 4156  
  46b 7064 45    
  47b 7065 0D   MSG4    BYTE  13
  48b 7066 5448         TEXT  'THE HONEYBEES'
  48b 7068 4520  
  48b 706A 484F  
  48b 706C 4E45  
  48b 706E 5942  
  48b 7070 4545  
  48b 7072 53    
  49b 7073 0A   MSG5    BYTE  10
  50b 7074 594F         TEXT  'YOUR SCORE'
  50b 7076 5552  
  50b 7078 2053  
  50b 707A 434F  
  50b 707C 5245  
  51b 707E 1B   MSG6    BYTE  27
  52b 707F 5052         TEXT  'PRESS ANY KEY TO PLAY AGAIN'        
  52b 7081 4553  
  52b 7083 5320  
  52b 7085 414E  
  52b 7087 5920  
  52b 7089 4B45  
  52b 708B 5920  
  52b 708D 544F  
  52b 708F 2050  
  52b 7091 4C41  
  52b 7093 5920  
  52b 7095 4147  
  52b 7097 4149  
  52b 7099 4E    
  53b           *--------------------------------------------------------------
  54b           *    Color tables
  55b           *--------------------------------------------------------------         
  56b 709A 1A1A COLORS  BYTE  >1A,>1A,>1A,>17,>17,>17,>17,>17
  56b 709C 1A17  
  56b 709E 1717  
  56b 70A0 1717  
  57b 70A2 1717         BYTE  >17,>17,>17,>1A,>FA,>6A,>1A,>1A  ; 
  57b 70A4 171A  
  57b 70A6 FA6A  
  57b 70A8 1A1A  
  58b 70AA 1616 COLOR2  BYTE  >16,>16,>16,>17,>17,>17,>17,>17
  58b 70AC 1617  
  58b 70AE 1717  
  58b 70B0 1717  
  59b 70B2 1717         BYTE  >17,>17,>17,>16,>F6,>9F,>16,>16  ; 
  59b 70B4 1716  
  59b 70B6 F69F  
  59b 70B8 1616  
  60b           ***************************************************************
  61b           *           Tiles for big letters 'HONEYCOMB'
  62b           ********@*****@*********************@**************************
  63b 70BA E0   TITLE1  BYTE  7*32                             ; Length byte
  64b 70BB 0005         BYTE  >00,>05,>01,>04,>05,>01,>04,>00  ; Line 1
  64b 70BD 0104  
  64b 70BF 0501  
  64b 70C1 0400  
  65b 70C3 0000         BYTE  >00,>00,>00,>00,>00,>00,>00,>00 
  65b 70C5 0000  
  65b 70C7 0000  
  65b 70C9 0000  
  66b 70CB 0000         BYTE  >00,>00,>00,>00,>00,>00,>00,>00 
  66b 70CD 0000  
  66b 70CF 0000  
  66b 70D1 0000  
  67b 70D3 0000         BYTE  >00,>00,>00,>00,>01,>00,>00,>00 
  67b 70D5 0000  
  67b 70D7 0100  
  67b 70D9 0000  
  68b 70DB 0000         BYTE  >00,>00,>01,>00,>00,>01,>00,>00  ; Line 2
  68b 70DD 0100  
  68b 70DF 0001  
  68b 70E1 0000  
  69b 70E3 0000         BYTE  >00,>00,>00,>00,>00,>00,>01,>03 
  69b 70E5 0000  
  69b 70E7 0000  
  69b 70E9 0103  
  70b 70EB 0002         BYTE  >00,>02,>01,>00,>00,>00,>00,>00 
  70b 70ED 0100  
  70b 70EF 0000  
  70b 70F1 0000  
  71b 70F3 0000         BYTE  >00,>00,>00,>00,>01,>00,>00,>00 
  71b 70F5 0000  
  71b 70F7 0100  
  71b 70F9 0000  
  72b 70FB 0000         BYTE  >00,>00,>01,>00,>00,>01,>02,>01  ; Line 3
  72b 70FD 0100  
  72b 70FF 0001  
  72b 7101 0201  
  73b 7103 0303         BYTE  >03,>03,>01,>00,>01,>01,>05,>01 
  73b 7105 0100  
  73b 7107 0101  
  73b 7109 0501  
  74b 710B 0701         BYTE  >07,>01,>04,>02,>01,>02,>01,>03 
  74b 710D 0402  
  74b 710F 0102  
  74b 7111 0103  
  75b 7113 0300         BYTE  >03,>00,>02,>00,>01,>00,>00,>00 
  75b 7115 0200  
  75b 7117 0100  
  75b 7119 0000  
  76b 711B 0000         BYTE  >00,>00,>01,>01,>01,>01,>01,>06  ; Line 4
  76b 711D 0101  
  76b 711F 0101  
  76b 7121 0106  
  77b 7123 0101         BYTE  >01,>01,>01,>00,>01,>00,>00,>05 
  77b 7125 0100  
  77b 7127 0100  
  77b 7129 0005  
  78b 712B 0104         BYTE  >01,>04,>00,>01,>00,>01,>06,>01 
  78b 712D 0001  
  78b 712F 0001  
  78b 7131 0601  
  79b 7133 0107         BYTE  >01,>07,>01,>00,>01,>00,>00,>00 
  79b 7135 0100  
  79b 7137 0100  
  79b 7139 0000  
  80b 713B 0000         BYTE  >00,>00,>01,>00,>00,>01,>05,>01  ; Line 5
  80b 713D 0100  
  80b 713F 0001  
  80b 7141 0501  
  81b 7143 0401         BYTE  >04,>01,>05,>00,>01,>01,>00,>00 
  81b 7145 0500  
  81b 7147 0101  
  81b 7149 0000  
  82b 714B 0100         BYTE  >01,>00,>00,>05,>01,>05,>01,>04 
  82b 714D 0005  
  82b 714F 0105  
  82b 7151 0104  
  83b 7153 0108         BYTE  >01,>08,>01,>00,>01,>01,>01,>00 
  83b 7155 0100  
  83b 7157 0101  
  83b 7159 0100  
  84b 715B 0000         BYTE  >00,>00,>01,>00,>00,>01,>00,>00  ; Line 6
  84b 715D 0100  
  84b 715F 0001  
  84b 7161 0000  
  85b 7163 0000         BYTE  >00,>00,>00,>00,>01,>00,>00,>00 
  85b 7165 0000  
  85b 7167 0100  
  85b 7169 0000  
  86b 716B 0100         BYTE  >01,>00,>00,>00,>00,>00,>00,>00 
  86b 716D 0000  
  86b 716F 0000  
  86b 7171 0000  
  87b 7173 0000         BYTE  >00,>00,>00,>00,>01,>00,>01,>00 
  87b 7175 0000  
  87b 7177 0100  
  87b 7179 0100  
  88b 717B 0002         BYTE  >00,>02,>01,>03,>02,>01,>03,>00  ; Line 7
  88b 717D 0103  
  88b 717F 0201  
  88b 7181 0300  
  89b 7183 0000         BYTE  >00,>00,>00,>00,>01,>01,>01,>01 
  89b 7185 0000  
  89b 7187 0101  
  89b 7189 0101  
  90b 718B 0101         BYTE  >01,>01,>01,>01,>01,>01,>01,>01 
  90b 718D 0101  
  90b 718F 0101  
  90b 7191 0101  
  91b 7193 0101         BYTE  >01,>01,>01,>01,>01,>01,>01,>00 
  91b 7195 0101  
  91b 7197 0101  
  91b 7199 0100  
  92b           ***************************************************************
  93b           *            Tiles for big letters 'RAPTURE'
  94b           ********@*****@*********************@**************************       
  95b 719B C9   TITLE2  BYTE  6*32+9
  96b 719C 0005         BYTE  >00,>05,>01,>01,>01,>01,>04,>00  ; Line 1
  96b 719E 0101  
  96b 71A0 0101  
  96b 71A2 0400  
  97b 71A4 0005         BYTE  >00,>05,>01,>01,>01,>03,>01,>01 
  97b 71A6 0101  
  97b 71A8 0103  
  97b 71AA 0101  
  98b 71AC 0101         BYTE  >01,>01,>01,>01,>00,>01,>05,>01 
  98b 71AE 0101  
  98b 71B0 0001  
  98b 71B2 0501  
  99b 71B4 0101         BYTE  >01,>01,>01,>04,>01,>01,>01,>00
  99b 71B6 0104  
  99b 71B8 0101  
  99b 71BA 0100  
 100b 71BC 0000         BYTE  >00,>00,>01,>02,>01,>04,>02,>01  ; Line 2
 100b 71BE 0102  
 100b 71C0 0104  
 100b 71C2 0201  
 101b 71C4 0300         BYTE  >03,>00,>01,>00,>01,>01,>04,>00 
 101b 71C6 0100  
 101b 71C8 0101  
 101b 71CA 0400  
 102b 71CC 0100         BYTE  >01,>00,>05,>01,>00,>01,>00,>01 
 102b 71CE 0501  
 102b 71D0 0001  
 102b 71D2 0001  
 103b 71D4 0201         BYTE  >02,>01,>04,>00,>01,>00,>00,>00 
 103b 71D6 0400  
 103b 71D8 0100  
 103b 71DA 0000  
 104b 71DC 0000         BYTE  >00,>00,>01,>01,>04,>00,>01,>00  ; Line 3 
 104b 71DE 0101  
 104b 71E0 0400  
 104b 71E2 0100  
 105b 71E4 0100         BYTE  >01,>00,>01,>01,>01,>04,>00,>00 
 105b 71E6 0101  
 105b 71E8 0104  
 105b 71EA 0000  
 106b 71EC 0100         BYTE  >01,>00,>00,>01,>00,>01,>00,>01 
 106b 71EE 0001  
 106b 71F0 0001  
 106b 71F2 0001  
 107b 71F4 0104         BYTE  >01,>04,>00,>00,>01,>01,>00,>00 
 107b 71F6 0000  
 107b 71F8 0101  
 107b 71FA 0000  
 108b 71FC 0000         BYTE  >00,>00,>01,>01,>03,>00,>01,>01  ; Line 4 
 108b 71FE 0101  
 108b 7200 0300  
 108b 7202 0101  
 109b 7204 0100         BYTE  >01,>00,>01,>00,>00,>00,>00,>00 
 109b 7206 0100  
 109b 7208 0000  
 109b 720A 0000  
 110b 720C 0100         BYTE  >01,>00,>00,>01,>00,>01,>00,>01 
 110b 720E 0001  
 110b 7210 0001  
 110b 7212 0001  
 111b 7214 0103         BYTE  >01,>03,>00,>00,>01,>00,>00,>00 
 111b 7216 0000  
 111b 7218 0100  
 111b 721A 0000  
 112b 721C 0000         BYTE  >00,>00,>01,>05,>01,>03,>01,>00  ; Line 5
 112b 721E 0105  
 112b 7220 0103  
 112b 7222 0100  
 113b 7224 0100         BYTE  >01,>00,>01,>00,>00,>00,>00,>00 
 113b 7226 0100  
 113b 7228 0000  
 113b 722A 0000  
 114b 722C 0100         BYTE  >01,>00,>00,>01,>00,>01,>00,>01 
 114b 722E 0001  
 114b 7230 0001  
 114b 7232 0001  
 115b 7234 0501         BYTE  >05,>01,>03,>00,>01,>00,>00,>00 
 115b 7236 0300  
 115b 7238 0100  
 115b 723A 0000  
 116b 723C 0002         BYTE  >00,>02,>01,>03,>05,>01,>03,>00  ; Line 6 
 116b 723E 0103  
 116b 7240 0501  
 116b 7242 0300  
 117b 7244 0102         BYTE  >01,>02,>01,>03,>00,>00,>00,>02 
 117b 7246 0103  
 117b 7248 0000  
 117b 724A 0002  
 118b 724C 0103         BYTE  >01,>03,>00,>05,>01,>04,>02,>01 
 118b 724E 0005  
 118b 7250 0104  
 118b 7252 0201  
 119b 7254 0305         BYTE  >03,>05,>01,>03,>01,>01,>01,>00 
 119b 7256 0103  
 119b 7258 0101  
 119b 725A 0100  
 120b 725C 0000         BYTE  >00,>00,>00,>00,>00,>00,>00,>00  ; Line 7 
 120b 725E 0000  
 120b 7260 0000  
 120b 7262 0000  
 121b 7264 01           BYTE  >01                              ; last character
 122b           ***************************************************************
 123b           *                       TITLE PATTERNS
 124b           ********@*****@*********************@**************************  
 125b 7265 FFFF TLTPAT  BYTE  >FF,>FF,>FF,>FF,>FF,>FF,>FF,>FF  ; 01
 125b 7267 FFFF  
 125b 7269 FFFF  
 125b 726B FFFF  
 126b 726D 0103         BYTE  >01,>03,>07,>0F,>1F,>3F,>7F,>FF  ; 02
 126b 726F 070F  
 126b 7271 1F3F  
 126b 7273 7FFF  
 127b 7275 80C0         BYTE  >80,>C0,>E0,>F0,>F8,>FC,>FE,>FF  ; 03
 127b 7277 E0F0  
 127b 7279 F8FC  
 127b 727B FEFF  
 128b 727D FFFE         BYTE  >FF,>FE,>FC,>F8,>F0,>E0,>C0,>80  ; 04
 128b 727F FCF8  
 128b 7281 F0E0  
 128b 7283 C080  
 129b 7285 FF7F         BYTE  >FF,>7F,>3F,>1F,>0F,>07,>03,>01  ; 05
 129b 7287 3F1F  
 129b 7289 0F07  
 129b 728B 0301  
 130b 728D E7C3         BYTE  >E7,>C3,>81,>00,>00,>81,>C3,>E7  ; 06
 130b 728F 8100  
 130b 7291 0081  
 130b 7293 C3E7  
 131b 7295 0081         BYTE  >00,>81,>C3,>E7,>E7,>FF,>FF,>FF  ; 07
 131b 7297 C3E7  
 131b 7299 E7FF  
 131b 729B FFFF  
 132b 729D FF7E         BYTE  >FF,>7E,>3C,>18,>00,>00,>00,>00  ; 08
 132b 729F 3C18  
 132b 72A1 0000  
 132b 72A3 0000  
 133b           ***************************************************************
 134b           *                       FONT PATTERNS
 135b           ********@*****@*********************@************************** 
 136b 72A5 1818 LETTRS  BYTE  >18,>18,>18,>18,>00,>18,>18,>00  ; 33
 136b 72A7 1818  
 136b 72A9 0018  
 136b 72AB 1800  
 137b 72AD 3333         BYTE  >33,>33,>66,>00,>00,>00,>00,>00  ; 34
 137b 72AF 6600  
 137b 72B1 0000  
 137b 72B3 0000  
 138b 72B5 6666         BYTE  >66,>66,>FF,>66,>FF,>66,>66,>00  ; 35
 138b 72B7 FF66  
 138b 72B9 FF66  
 138b 72BB 6600  
 139b 72BD 183E         BYTE  >18,>3E,>60,>3C,>06,>7C,>18,>00  ; 36
 139b 72BF 603C  
 139b 72C1 067C  
 139b 72C3 1800  
 140b 72C5 6266         BYTE  >62,>66,>0C,>18,>30,>66,>46,>00  ; 37
 140b 72C7 0C18  
 140b 72C9 3066  
 140b 72CB 4600  
 141b 72CD 3C66         BYTE  >3C,>66,>3C,>38,>67,>66,>3F,>00  ; 38
 141b 72CF 3C38  
 141b 72D1 6766  
 141b 72D3 3F00  
 142b 72D5 0C0C         BYTE  >0C,>0C,>18,>00,>00,>00,>00,>00  ; 39
 142b 72D7 1800  
 142b 72D9 0000  
 142b 72DB 0000  
 143b 72DD 0C18         BYTE  >0C,>18,>30,>30,>30,>18,>0C,>00  ; 40
 143b 72DF 3030  
 143b 72E1 3018  
 143b 72E3 0C00  
 144b 72E5 3018         BYTE  >30,>18,>0C,>0C,>0C,>18,>30,>00  ; 41
 144b 72E7 0C0C  
 144b 72E9 0C18  
 144b 72EB 3000  
 145b 72ED 0066         BYTE  >00,>66,>3C,>FF,>3C,>66,>00,>00  ; 42
 145b 72EF 3CFF  
 145b 72F1 3C66  
 145b 72F3 0000  
 146b 72F5 0018         BYTE  >00,>18,>18,>7E,>18,>18,>00,>00  ; 43
 146b 72F7 187E  
 146b 72F9 1818  
 146b 72FB 0000  
 147b 72FD 0000         BYTE  >00,>00,>00,>00,>00,>18,>18,>30  ; 44
 147b 72FF 0000  
 147b 7301 0018  
 147b 7303 1830  
 148b 7305 0000         BYTE  >00,>00,>00,>6E,>3B,>00,>00,>00  ; 45
 148b 7307 006E  
 148b 7309 3B00  
 148b 730B 0000  
 149b 730D 0000         BYTE  >00,>00,>00,>00,>00,>18,>18,>00  ; 46
 149b 730F 0000  
 149b 7311 0018  
 149b 7313 1800  
 150b 7315 0003         BYTE  >00,>03,>06,>0C,>18,>30,>60,>00  ; 47
 150b 7317 060C  
 150b 7319 1830  
 150b 731B 6000  
 151b 731D 3E63         BYTE  >3E,>63,>67,>6B,>73,>63,>3E,>00  ; 48
 151b 731F 676B  
 151b 7321 7363  
 151b 7323 3E00  
 152b 7325 0C1C         BYTE  >0C,>1C,>0C,>0C,>0C,>0C,>3F,>00  ; 49
 152b 7327 0C0C  
 152b 7329 0C0C  
 152b 732B 3F00  
 153b 732D 3E63         BYTE  >3E,>63,>63,>0E,>38,>63,>7F,>00  ; 50
 153b 732F 630E  
 153b 7331 3863  
 153b 7333 7F00  
 154b 7335 3E63         BYTE  >3E,>63,>63,>0E,>63,>63,>3E,>00  ; 51
 154b 7337 630E  
 154b 7339 6363  
 154b 733B 3E00  
 155b 733D 060E         BYTE  >06,>0E,>1E,>26,>7F,>06,>06,>00  ; 52
 155b 733F 1E26  
 155b 7341 7F06  
 155b 7343 0600  
 156b 7345 7F63         BYTE  >7F,>63,>60,>7E,>03,>63,>3E,>00  ; 53
 156b 7347 607E  
 156b 7349 0363  
 156b 734B 3E00  
 157b 734D 3E63         BYTE  >3E,>63,>60,>7E,>63,>63,>3E,>00  ; 54
 157b 734F 607E  
 157b 7351 6363  
 157b 7353 3E00  
 158b 7355 7F63         BYTE  >7F,>63,>06,>0C,>18,>18,>3C,>00  ; 55
 158b 7357 060C  
 158b 7359 1818  
 158b 735B 3C00  
 159b 735D 3E63         BYTE  >3E,>63,>63,>3E,>63,>63,>3E,>00  ; 56
 159b 735F 633E  
 159b 7361 6363  
 159b 7363 3E00  
 160b 7365 3E63         BYTE  >3E,>63,>63,>3F,>03,>63,>3E,>00  ; 57
 160b 7367 633F  
 160b 7369 0363  
 160b 736B 3E00  
 161b 736D 0018         BYTE  >00,>18,>18,>00,>18,>18,>00,>00  ; 58
 161b 736F 1800  
 161b 7371 1818  
 161b 7373 0000  
 162b 7375 0018         BYTE  >00,>18,>18,>00,>18,>18,>30,>00  ; 59
 162b 7377 1800  
 162b 7379 1818  
 162b 737B 3000  
 163b 737D 0E18         BYTE  >0E,>18,>30,>60,>30,>18,>0E,>00  ; 60
 163b 737F 3060  
 163b 7381 3018  
 163b 7383 0E00  
 164b 7385 0000         BYTE  >00,>00,>7E,>00,>7E,>00,>00,>00  ; 61
 164b 7387 7E00  
 164b 7389 7E00  
 164b 738B 0000  
 165b 738D 7018         BYTE  >70,>18,>0C,>06,>0C,>18,>70,>00  ; 62
 165b 738F 0C06  
 165b 7391 0C18  
 165b 7393 7000  
 166b 7395 7E63         BYTE  >7E,>63,>03,>06,>1C,>00,>18,>18  ; 63
 166b 7397 0306  
 166b 7399 1C00  
 166b 739B 1818  
 167b 739D 3C66         BYTE  >3C,>66,>6E,>6E,>60,>62,>3C,>00  ; 64
 167b 739F 6E6E  
 167b 73A1 6062  
 167b 73A3 3C00  
 168b 73A5 1C36         BYTE  >1C,>36,>63,>7F,>63,>63,>63,>00  ; 65
 168b 73A7 637F  
 168b 73A9 6363  
 168b 73AB 6300  
 169b 73AD 6E73         BYTE  >6E,>73,>63,>7E,>63,>63,>7E,>00  ; 66
 169b 73AF 637E  
 169b 73B1 6363  
 169b 73B3 7E00  
 170b 73B5 1E33         BYTE  >1E,>33,>60,>60,>60,>33,>1E,>00  ; 67
 170b 73B7 6060  
 170b 73B9 6033  
 170b 73BB 1E00  
 171b 73BD 6C76         BYTE  >6C,>76,>63,>63,>63,>66,>7C,>00  ; 68
 171b 73BF 6363  
 171b 73C1 6366  
 171b 73C3 7C00  
 172b 73C5 7F31         BYTE  >7F,>31,>30,>3C,>30,>31,>7F,>00  ; 69
 172b 73C7 303C  
 172b 73C9 3031  
 172b 73CB 7F00  
 173b 73CD 7F31         BYTE  >7F,>31,>30,>3C,>30,>30,>78,>00  ; 70
 173b 73CF 303C  
 173b 73D1 3030  
 173b 73D3 7800  
 174b 73D5 1E33         BYTE  >1E,>33,>60,>67,>63,>37,>1D,>00  ; 71
 174b 73D7 6067  
 174b 73D9 6337  
 174b 73DB 1D00  
 175b 73DD 6363         BYTE  >63,>63,>63,>7F,>63,>63,>63,>00  ; 72
 175b 73DF 637F  
 175b 73E1 6363  
 175b 73E3 6300  
 176b 73E5 3C18         BYTE  >3C,>18,>18,>18,>18,>18,>3C,>00  ; 73
 176b 73E7 1818  
 176b 73E9 1818  
 176b 73EB 3C00  
 177b 73ED 1F06         BYTE  >1F,>06,>06,>06,>06,>66,>3C,>00  ; 74
 177b 73EF 0606  
 177b 73F1 0666  
 177b 73F3 3C00  
 178b 73F5 6666         BYTE  >66,>66,>6C,>78,>6C,>67,>63,>00  ; 75
 178b 73F7 6C78  
 178b 73F9 6C67  
 178b 73FB 6300  
 179b 73FD 7830         BYTE  >78,>30,>60,>60,>63,>63,>7E,>00  ; 76
 179b 73FF 6060  
 179b 7401 6363  
 179b 7403 7E00  
 180b 7405 6377         BYTE  >63,>77,>7F,>6B,>63,>63,>63,>00  ; 77
 180b 7407 7F6B  
 180b 7409 6363  
 180b 740B 6300  
 181b 740D 6373         BYTE  >63,>73,>7B,>6F,>67,>63,>63,>00  ; 78
 181b 740F 7B6F  
 181b 7411 6763  
 181b 7413 6300  
 182b 7415 1C36         BYTE  >1C,>36,>63,>63,>63,>36,>1C,>00  ; 79
 182b 7417 6363  
 182b 7419 6336  
 182b 741B 1C00  
 183b 741D 6E73         BYTE  >6E,>73,>63,>7E,>60,>60,>60,>00  ; 80
 183b 741F 637E  
 183b 7421 6060  
 183b 7423 6000  
 184b 7425 1C36         BYTE  >1C,>36,>63,>6B,>67,>36,>1D,>00  ; 81
 184b 7427 636B  
 184b 7429 6736  
 184b 742B 1D00  
 185b 742D 6E73         BYTE  >6E,>73,>63,>7E,>6C,>67,>63,>00  ; 82
 185b 742F 637E  
 185b 7431 6C67  
 185b 7433 6300  
 186b 7435 3E63         BYTE  >3E,>63,>60,>3E,>03,>63,>3E,>00  ; 83
 186b 7437 603E  
 186b 7439 0363  
 186b 743B 3E00  
 187b 743D 7E5A         BYTE  >7E,>5A,>18,>18,>18,>18,>3C,>00  ; 84
 187b 743F 1818  
 187b 7441 1818  
 187b 7443 3C00  
 188b 7445 7333         BYTE  >73,>33,>63,>63,>63,>76,>3C,>00  ; 85
 188b 7447 6363  
 188b 7449 6376  
 188b 744B 3C00  
 189b 744D 7333         BYTE  >73,>33,>63,>63,>66,>3C,>18,>00  ; 86
 189b 744F 6363  
 189b 7451 663C  
 189b 7453 1800  
 190b 7455 7333         BYTE  >73,>33,>63,>6B,>7F,>77,>63,>00  ; 87
 190b 7457 636B  
 190b 7459 7F77  
 190b 745B 6300  
 191b 745D 6363         BYTE  >63,>63,>36,>1C,>36,>63,>63,>00  ; 88
 191b 745F 361C  
 191b 7461 3663  
 191b 7463 6300  
 192b 7465 3363         BYTE  >33,>63,>63,>36,>1C,>78,>70,>00  ; 89
 192b 7467 6336  
 192b 7469 1C78  
 192b 746B 7000  
 193b 746D 7F63         BYTE  >7F,>63,>06,>1C,>33,>63,>7E,>00  ; 90
 193b 746F 061C  
 193b 7471 3363  
 193b 7473 7E00  
 194b           ***************************************************************
 195b           *                 HONEYCOMB & FLOWER PATTERNS
 196b           ********@*****@*********************@************************** 
 197b 7475 1818         BYTE  >18,>18,>18,>18,>18,>18,>18,>18  ; 91 Flower steel            
 197b 7477 1818  
 197b 7479 1818  
 197b 747B 1818  
 198b 747D 0307         BYTE >03,>07,>00,>0F,>1F,>00,>3F,>7E   ; 92 Honeycomb top left
 198b 747F 000F  
 198b 7481 1F00  
 198b 7483 3F7E  
 199b 7485 C0E0         BYTE >C0,>E0,>00,>F0,>F8,>00,>FC,>7E   ; 93 Honeycomb top right                
 199b 7487 00F0  
 199b 7489 F800  
 199b 748B FC7E  
 200b 748D 017B         BYTE >01,>7B,>3B,>01,>1E,>0F,>00,>03   ; 93 Honeycomb bottom left
 200b 748F 3B01  
 200b 7491 1E0F  
 200b 7493 0003  
 201b 7495 80DE         BYTE >80,>DE,>DC,>80,>78,>F0,>00,>C0   ; 95 Honeycomb bottom right        
 201b 7497 DC80  
 201b 7499 78F0  
 201b 749B 00C0  
 202b 749D 0000         BYTE >00,>00,>00,>1E,>1F,>1F,>1F,>0F   ; 96  Top left
 202b 749F 001E  
 202b 74A1 1F1F  
 202b 74A3 1F0F  
 203b 74A5 183C         BYTE >18,>3C,>3C,>7E,>7E,>3C,>18,>BD   ; 97  Top
 203b 74A7 3C7E  
 203b 74A9 7E3C  
 203b 74AB 18BD  
 204b 74AD 0000         BYTE >00,>00,>00,>78,>F8,>F8,>F8,>F0   ; 98  Top right
 204b 74AF 0078  
 204b 74B1 F8F8  
 204b 74B3 F8F0  
 205b 74B5 0118         BYTE >01,>18,>7D,>FF,>FF,>7D,>18,>01   ; 99  Left
 205b 74B7 7DFF  
 205b 74B9 FF7D  
 205b 74BB 1801  
 206b 74BD 8018         BYTE >80,>18,>BE,>FF,>FF,>BE,>18,>80   ; 100 Right
 206b 74BF BEFF  
 206b 74C1 FFBE  
 206b 74C3 1880  
 207b 74C5 0F1F         BYTE >0F,>1F,>1F,>1F,>1E,>00,>00,>00   ; 101 Bottom left
 207b 74C7 1F1F  
 207b 74C9 1E00  
 207b 74CB 0000  
 208b 74CD BD18         BYTE >BD,>18,>3C,>7E,>7E,>3C,>3C,>18   ; 102 Bottom
 208b 74CF 3C7E  
 208b 74D1 7E3C  
 208b 74D3 3C18  
 209b 74D5 F0F8         BYTE >F0,>F8,>F8,>F8,>78,>00,>00,>00   ; 103 Bottom right        
 209b 74D7 F8F8  
 209b 74D9 7800  
 209b 74DB 0000  
 210b 74DD 3C4E         BYTE >3C,>4E,>BE,>FF,>FF,>FF,>7E,>3C   ; 104 Middle        
 210b 74DF BEFF  
 210b 74E1 FFFF  
 210b 74E3 7E3C  
 211b           ***************************************************************
 212b           *                      SPRITE PATTERNS
 213b           ********@*****@*********************@**************************               
 214b 74E5 0000 SPRPAT  BYTE  >00,>00,>00,>78,>3C,>1E,>4F,>E7  ; Plane
 214b 74E7 0078  
 214b 74E9 3C1E  
 214b 74EB 4FE7  
 215b 74ED E7FD         BYTE  >E7,>FD,>FF,>03,>07,>0F,>1E,>3C
 215b 74EF FF03  
 215b 74F1 070F  
 215b 74F3 1E3C  
 216b 74F5 0000         BYTE  >00,>00,>00,>00,>00,>00,>01,>81
 216b 74F7 0000  
 216b 74F9 0000  
 216b 74FB 0181  
 217b 74FD F15D         BYTE  >F1,>5D,>F9,>C1,>81,>00,>00,>00
 217b 74FF F9C1  
 217b 7501 8100  
 217b 7503 0000  
 218b 7505 0404         BYTE  >04,>04,>02,>01,>00,>01,>04,>0B  ; 04 Bee 1 (up)
 218b 7507 0201  
 218b 7509 0001  
 218b 750B 040B  
 219b 750D 1023         BYTE  >10,>23,>40,>87,>80,>87,>48,>31
 219b 750F 4087  
 219b 7511 8087  
 219b 7513 4831  
 220b 7515 2020         BYTE  >20,>20,>40,>80,>00,>80,>20,>D0
 220b 7517 4080  
 220b 7519 0080  
 220b 751B 20D0  
 221b 751D 08C4         BYTE  >08,>C4,>02,>E1,>01,>E1,>12,>8C
 221b 751F 02E1  
 221b 7521 01E1  
 221b 7523 128C  
 222b 7525 007F         BYTE  >00,>7F,>41,>40,>C0,>80,>81,>88  ; 08 Bee 2 (up right)
 222b 7527 4140  
 222b 7529 C080  
 222b 752B 8188  
 223b 752D E422         BYTE  >E4,>22,>11,>08,>24,>13,>01,>01
 223b 752F 1108  
 223b 7531 2413  
 223b 7533 0101  
 224b 7535 0810         BYTE  >08,>10,>C8,>35,>4A,>28,>14,>84
 224b 7537 C835  
 224b 7539 4A28  
 224b 753B 1484  
 225b 753D 4602         BYTE  >46,>02,>02,>82,>02,>02,>1E,>F0
 225b 753F 0282  
 225b 7541 0202  
 225b 7543 1EF0  
 226b 7545 3844         BYTE  >38,>44,>82,>81,>40,>28,>2A,>AA  ; 0C Bee 3 (right)
 226b 7547 8281  
 226b 7549 4028  
 226b 754B 2AAA  
 227b 754D AA2A         BYTE  >AA,>2A,>28,>40,>81,>82,>44,>38
 227b 754F 2840  
 227b 7551 8182  
 227b 7553 4438  
 228b 7555 0000         BYTE  >00,>00,>00,>00,>80,>C3,>84,>A8
 228b 7557 0000  
 228b 7559 80C3  
 228b 755B 84A8  
 229b 755D A884         BYTE  >A8,>84,>43,>80,>00,>00,>00,>00
 229b 755F 4380  
 229b 7561 0000  
 229b 7563 0000  
 230b 7565 0101         BYTE  >01,>01,>13,>24,>08,>11,>22,>E4  ; 10 Bee 4 (down right)
 230b 7567 1324  
 230b 7569 0811  
 230b 756B 22E4  
 231b 756D 8881         BYTE  >88,>81,>80,>C0,>40,>41,>7F,>00
 231b 756F 80C0  
 231b 7571 4041  
 231b 7573 7F00  
 232b 7575 F01E         BYTE  >F0,>1E,>02,>02,>82,>02,>02,>46
 232b 7577 0202  
 232b 7579 8202  
 232b 757B 0246  
 233b 757D 8414         BYTE  >84,>14,>28,>4A,>35,>C8,>10,>08
 233b 757F 284A  
 233b 7581 35C8  
 233b 7583 1008  
 234b 7585 3148         BYTE  >31,>48,>87,>80,>87,>40,>23,>10  ; 14 Bee 5 (down)
 234b 7587 8780  
 234b 7589 8740  
 234b 758B 2310  
 235b 758D 0B04         BYTE  >0B,>04,>01,>00,>01,>02,>04,>04
 235b 758F 0100  
 235b 7591 0102  
 235b 7593 0404  
 236b 7595 8C12         BYTE  >8C,>12,>E1,>01,>E1,>02,>C4,>08
 236b 7597 E101  
 236b 7599 E102  
 236b 759B C408  
 237b 759D D020         BYTE  >D0,>20,>80,>00,>80,>40,>20,>20                
 237b 759F 8000  
 237b 75A1 8040  
 237b 75A3 2020  
 238b 75A5 0F78         BYTE  >0F,>78,>40,>40,>41,>40,>40,>62  ; 18 Bee 6 (down left)
 238b 75A7 4040  
 238b 75A9 4140  
 238b 75AB 4062  
 239b 75AD 2128         BYTE  >21,>28,>14,>52,>AC,>13,>08,>10
 239b 75AF 1452  
 239b 75B1 AC13  
 239b 75B3 0810  
 240b 75B5 8080         BYTE  >80,>80,>C8,>24,>10,>88,>44,>27
 240b 75B7 C824  
 240b 75B9 1088  
 240b 75BB 4427  
 241b 75BD 1181         BYTE  >11,>81,>01,>03,>02,>82,>FE,>00        
 241b 75BF 0103  
 241b 75C1 0282  
 241b 75C3 FE00  
 242b 75C5 0000         BYTE  >00,>00,>00,>00,>01,>C2,>21,>15  ; 1C Bee 7 (left)
 242b 75C7 0000  
 242b 75C9 01C2  
 242b 75CB 2115  
 243b 75CD 1521         BYTE  >15,>21,>C3,>01,>00,>00,>00,>00
 243b 75CF C301  
 243b 75D1 0000  
 243b 75D3 0000  
 244b 75D5 1C22         BYTE  >1C,>22,>41,>81,>02,>14,>54,>55
 244b 75D7 4181  
 244b 75D9 0214  
 244b 75DB 5455  
 245b 75DD 5554         BYTE  >55,>54,>14,>02,>81,>41,>22,>1C                       
 245b 75DF 1402  
 245b 75E1 8141  
 245b 75E3 221C  
 246b 75E5 1008         BYTE  >10,>08,>13,>AC,>52,>14,>28,>21  ; 20 Bee 8 (up left)
 246b 75E7 13AC  
 246b 75E9 5214  
 246b 75EB 2821  
 247b 75ED 6240         BYTE  >62,>40,>40,>41,>40,>40,>78,>0F
 247b 75EF 4041  
 247b 75F1 4040  
 247b 75F3 780F  
 248b 75F5 00FE         BYTE  >00,>FE,>82,>02,>03,>01,>81,>11
 248b 75F7 8202  
 248b 75F9 0301  
 248b 75FB 8111  
 249b 75FD 2744         BYTE  >27,>44,>88,>10,>24,>C8,>80,>80        
 249b 75FF 8810  
 249b 7601 24C8  
 249b 7603 8080  
 250b           ***************************************************************
 251b           *                       MUSIC DATA
 252b           ********@*****@*********************@**************************  
 253b 7605 0985 SOUND1  BYTE  9,133,42,144,166,8,176,204,31,223,18
 253b 7607 2A90  
 253b 7609 A608  
 253b 760B B0CC  
 253b 760D 1FDF  
 253b 760F 12    
 254b 7610 0985         BYTE  9,133,42,144,167,9,176,204,31,223,9
 254b 7612 2A90  
 254b 7614 A709  
 254b 7616 B0CC  
 254b 7618 1FDF  
 254b 761A 09    
 255b 761B 0985         BYTE  9,133,42,144,166,8,176,204,31,223,18
 255b 761D 2A90  
 255b 761F A608  
 255b 7621 B0CC  
 255b 7623 1FDF  
 255b 7625 12    
 256b 7626 0985         BYTE  9,133,42,144,167,9,176,204,31,223,9
 256b 7628 2A90  
 256b 762A A709  
 256b 762C B0CC  
 256b 762E 1FDF  
 256b 7630 09    
 257b 7631 0985         BYTE  9,133,42,144,166,8,176,204,31,223,18
 257b 7633 2A90  
 257b 7635 A608  
 257b 7637 B0CC  
 257b 7639 1FDF  
 257b 763B 12    
 258b 763C 0985         BYTE  9,133,42,144,167,9,176,204,31,223,9
 258b 763E 2A90  
 258b 7640 A709  
 258b 7642 B0CC  
 258b 7644 1FDF  
 258b 7646 09    
 259b 7647 0985         BYTE  9,133,42,144,164,28,176,201,10,208,18
 259b 7649 2A90  
 259b 764B A41C  
 259b 764D B0C9  
 259b 764F 0AD0  
 259b 7651 12    
 260b 7652 0985         BYTE  9,133,42,144,172,31,191,204,31,223,9
 260b 7654 2A90  
 260b 7656 AC1F  
 260b 7658 BFCC  
 260b 765A 1FDF  
 260b 765C 09    
 261b 765D 098C         BYTE  9,140,31,144,175,7,176,204,31,223,18
 261b 765F 1F90  
 261b 7661 AF07  
 261b 7663 B0CC  
 261b 7665 1FDF  
 261b 7667 12    
 262b 7668 098C         BYTE  9,140,31,144,166,8,176,204,31,223,9
 262b 766A 1F90  
 262b 766C A608  
 262b 766E B0CC  
 262b 7670 1FDF  
 262b 7672 09    
 263b 7673 098C         BYTE  9,140,31,144,175,7,176,204,31,223,18
 263b 7675 1F90  
 263b 7677 AF07  
 263b 7679 B0CC  
 263b 767B 1FDF  
 263b 767D 12    
 264b 767E 098C         BYTE  9,140,31,144,166,8,176,204,31,223,9
 264b 7680 1F90  
 264b 7682 A608  
 264b 7684 B0CC  
 264b 7686 1FDF  
 264b 7688 09    
 265b 7689 098C         BYTE  9,140,31,144,175,7,176,204,31,223,18
 265b 768B 1F90  
 265b 768D AF07  
 265b 768F B0CC  
 265b 7691 1FDF  
 265b 7693 12    
 266b 7694 098C         BYTE  9,140,31,144,166,8,176,204,31,223,9
 266b 7696 1F90  
 266b 7698 A608  
 266b 769A B0CC  
 266b 769C 1FDF  
 266b 769E 09    
 267b 769F 098C         BYTE  9,140,31,144,162,21,176,199,9,208,18
 267b 76A1 1F90  
 267b 76A3 A215  
 267b 76A5 B0C7  
 267b 76A7 09D0  
 267b 76A9 12    
 268b 76AA 098C         BYTE  9,140,31,144,172,31,191,204,31,223,9
 268b 76AC 1F90  
 268b 76AE AC1F  
 268b 76B0 BFCC  
 268b 76B2 1FDF  
 268b 76B4 09    
 269b 76B5 0985         BYTE  9,133,42,144,166,8,176,204,31,223,18
 269b 76B7 2A90  
 269b 76B9 A608  
 269b 76BB B0CC  
 269b 76BD 1FDF  
 269b 76BF 12    
 270b 76C0 0985         BYTE  9,133,42,144,167,9,176,204,31,223,9
 270b 76C2 2A90  
 270b 76C4 A709  
 270b 76C6 B0CC  
 270b 76C8 1FDF  
 270b 76CA 09    
 271b 76CB 0985         BYTE  9,133,42,144,166,8,176,204,31,223,18
 271b 76CD 2A90  
 271b 76CF A608  
 271b 76D1 B0CC  
 271b 76D3 1FDF  
 271b 76D5 12    
 272b 76D6 0985         BYTE  9,133,42,144,167,9,176,204,31,223,9
 272b 76D8 2A90  
 272b 76DA A709  
 272b 76DC B0CC  
 272b 76DE 1FDF  
 272b 76E0 09    
 273b 76E1 0985         BYTE  9,133,42,144,166,8,176,204,31,223,18
 273b 76E3 2A90  
 273b 76E5 A608  
 273b 76E7 B0CC  
 273b 76E9 1FDF  
 273b 76EB 12    
 274b 76EC 0985         BYTE  9,133,42,144,167,9,176,204,31,223,9
 274b 76EE 2A90  
 274b 76F0 A709  
 274b 76F2 B0CC  
 274b 76F4 1FDF  
 274b 76F6 09    
 275b 76F7 0985         BYTE  9,133,42,144,164,28,176,201,10,208,18
 275b 76F9 2A90  
 275b 76FB A41C  
 275b 76FD B0C9  
 275b 76FF 0AD0  
 275b 7701 12    
 276b 7702 098C         BYTE  9,140,31,159,172,31,191,204,31,223,9
 276b 7704 1F9F  
 276b 7706 AC1F  
 276b 7708 BFCC  
 276b 770A 1FDF  
 276b 770C 09    
 277b 770D 098D         BYTE  9,141,56,144,164,28,176,199,9,208,28
 277b 770F 3890  
 277b 7711 A41C  
 277b 7713 B0C7  
 277b 7715 09D0  
 277b 7717 1C    
 278b 7718 098D         BYTE  9,141,56,144,164,28,176,201,10,208,28
 278b 771A 3890  
 278b 771C A41C  
 278b 771E B0C9  
 278b 7720 0AD0  
 278b 7722 1C    
 279b 7723 098D         BYTE  9,141,56,144,164,28,176,195,11,208,28
 279b 7725 3890  
 279b 7727 A41C  
 279b 7729 B0C3  
 279b 772B 0BD0  
 279b 772D 1C    
 280b 772E 098D         BYTE  9,141,56,144,164,28,176,201,10,208,28
 280b 7730 3890  
 280b 7732 A41C  
 280b 7734 B0C9  
 280b 7736 0AD0  
 280b 7738 1C    
 281b 7739 0985         BYTE  9,133,42,144,166,8,176,204,31,223,18
 281b 773B 2A90  
 281b 773D A608  
 281b 773F B0CC  
 281b 7741 1FDF  
 281b 7743 12    
 282b 7744 0985         BYTE  9,133,42,144,167,9,176,204,31,223,9
 282b 7746 2A90  
 282b 7748 A709  
 282b 774A B0CC  
 282b 774C 1FDF  
 282b 774E 09    
 283b 774F 0985         BYTE  9,133,42,144,166,8,176,204,31,223,18
 283b 7751 2A90  
 283b 7753 A608  
 283b 7755 B0CC  
 283b 7757 1FDF  
 283b 7759 12    
 284b 775A 0985         BYTE  9,133,42,144,167,9,176,204,31,223,9
 284b 775C 2A90  
 284b 775E A709  
 284b 7760 B0CC  
 284b 7762 1FDF  
 284b 7764 09    
 285b 7765 0985         BYTE  9,133,42,144,166,8,176,204,31,223,18
 285b 7767 2A90  
 285b 7769 A608  
 285b 776B B0CC  
 285b 776D 1FDF  
 285b 776F 12    
 286b 7770 0985         BYTE  9,133,42,144,167,9,176,204,31,223,9
 286b 7772 2A90  
 286b 7774 A709  
 286b 7776 B0CC  
 286b 7778 1FDF  
 286b 777A 09    
 287b 777B 0985         BYTE  9,133,42,144,164,28,176,201,10,208,18
 287b 777D 2A90  
 287b 777F A41C  
 287b 7781 B0C9  
 287b 7783 0AD0  
 287b 7785 12    
 288b 7786 0985         BYTE  9,133,42,144,172,31,191,204,31,223,9
 288b 7788 2A90  
 288b 778A AC1F  
 288b 778C BFCC  
 288b 778E 1FDF  
 288b 7790 09    
 289b 7791 098C         BYTE  9,140,31,144,175,7,176,204,31,223,18
 289b 7793 1F90  
 289b 7795 AF07  
 289b 7797 B0CC  
 289b 7799 1FDF  
 289b 779B 12    
 290b 779C 098C         BYTE  9,140,31,144,166,8,176,204,31,223,9
 290b 779E 1F90  
 290b 77A0 A608  
 290b 77A2 B0CC  
 290b 77A4 1FDF  
 290b 77A6 09    
 291b 77A7 098C         BYTE  9,140,31,144,175,7,176,204,31,223,18
 291b 77A9 1F90  
 291b 77AB AF07  
 291b 77AD B0CC  
 291b 77AF 1FDF  
 291b 77B1 12    
 292b 77B2 098C         BYTE  9,140,31,144,166,8,176,204,31,223,9
 292b 77B4 1F90  
 292b 77B6 A608  
 292b 77B8 B0CC  
 292b 77BA 1FDF  
 292b 77BC 09    
 293b 77BD 098C         BYTE  9,140,31,144,175,7,176,204,31,223,18
 293b 77BF 1F90  
 293b 77C1 AF07  
 293b 77C3 B0CC  
 293b 77C5 1FDF  
 293b 77C7 12    
 294b 77C8 098C         BYTE  9,140,31,144,166,8,176,204,31,223,9
 294b 77CA 1F90  
 294b 77CC A608  
 294b 77CE B0CC  
 294b 77D0 1FDF  
 294b 77D2 09    
 295b 77D3 098C         BYTE  9,140,31,144,162,21,176,199,9,208,18
 295b 77D5 1F90  
 295b 77D7 A215  
 295b 77D9 B0C7  
 295b 77DB 09D0  
 295b 77DD 12    
 296b 77DE 098C         BYTE  9,140,31,159,172,31,191,204,31,223,9
 296b 77E0 1F9F  
 296b 77E2 AC1F  
 296b 77E4 BFCC  
 296b 77E6 1FDF  
 296b 77E8 09    
 297b 77E9 098D         BYTE  9,141,56,144,174,18,176,193,7,208,18
 297b 77EB 3890  
 297b 77ED AE12  
 297b 77EF B0C1  
 297b 77F1 07D0  
 297b 77F3 12    
 298b 77F4 098D         BYTE  9,141,56,144,174,18,176,199,9,208,9
 298b 77F6 3890  
 298b 77F8 AE12  
 298b 77FA B0C7  
 298b 77FC 09D0  
 298b 77FE 09    
 299b 77FF 098D         BYTE  9,141,56,144,174,18,176,193,7,208,18
 299b 7801 3890  
 299b 7803 AE12  
 299b 7805 B0C1  
 299b 7807 07D0  
 299b 7809 12    
 300b 780A 098D         BYTE  9,141,56,144,174,18,176,199,9,208,9
 300b 780C 3890  
 300b 780E AE12  
 300b 7810 B0C7  
 300b 7812 09D0  
 300b 7814 09    
 301b 7815 098D         BYTE  9,141,56,144,174,18,176,193,7,208,18
 301b 7817 3890  
 301b 7819 AE12  
 301b 781B B0C1  
 301b 781D 07D0  
 301b 781F 12    
 302b 7820 098D         BYTE  9,141,56,144,174,18,176,199,9,208,9
 302b 7822 3890  
 302b 7824 AE12  
 302b 7826 B0C7  
 302b 7828 09D0  
 302b 782A 09    
 303b 782B 098D         BYTE  9,141,56,144,172,37,176,193,7,208,9
 303b 782D 3890  
 303b 782F AC25  
 303b 7831 B0C1  
 303b 7833 07D0  
 303b 7835 09    
 304b 7836 098D         BYTE  9,141,56,144,172,37,176,196,6,208,9
 304b 7838 3890  
 304b 783A AC25  
 304b 783C B0C4  
 304b 783E 06D0  
 304b 7840 09    
 305b 7841 098D         BYTE  9,141,56,144,172,37,176,201,5,208,9
 305b 7843 3890  
 305b 7845 AC25  
 305b 7847 B0C9  
 305b 7849 05D0  
 305b 784B 09    
 306b 784C 0985         BYTE  9,133,42,144,164,28,176,196,5,208,18
 306b 784E 2A90  
 306b 7850 A41C  
 306b 7852 B0C4  
 306b 7854 05D0  
 306b 7856 12    
 307b 7857 098C         BYTE  9,140,31,159,172,31,191,204,31,223,9
 307b 7859 1F9F  
 307b 785B AC1F  
 307b 785D BFCC  
 307b 785F 1FDF  
 307b 7861 09    
 308b 7862 098D         BYTE  9,141,56,144,172,31,191,204,31,223,9
 308b 7864 3890  
 308b 7866 AC1F  
 308b 7868 BFCC  
 308b 786A 1FDF  
 308b 786C 09    
 309b 786D 098D         BYTE  9,141,56,144,172,37,176,204,31,223,9
 309b 786F 3890  
 309b 7871 AC25  
 309b 7873 B0CC  
 309b 7875 1FDF  
 309b 7877 09    
 310b 7878 098D         BYTE  9,141,56,144,172,37,176,196,28,208,9
 310b 787A 3890  
 310b 787C AC25  
 310b 787E B0C4  
 310b 7880 1CD0  
 310b 7882 09    
 311b 7883 0985         BYTE  9,133,42,144,173,56,176,204,31,223,18
 311b 7885 2A90  
 311b 7887 AD38  
 311b 7889 B0CC  
 311b 788B 1FDF  
 311b 788D 12    
 312b 788E 098C         BYTE  9,140,31,159,172,31,191,204,31,223,43
 312b 7890 1F9F  
 312b 7892 AC1F  
 312b 7894 BFCC  
 312b 7896 1FDF  
 312b 7898 2B    
 313b 7899 00           BYTE  >00
 314b           ********@*****@*********************@**************************        
 315b 789A 098E SOUND2  BYTE 9,142,15,145           ; CALL SOUND(400,220,1,330,1,523,1)
 315b 789C 0F91  
 316b 789E A90C         BYTE 169,12,177
 316b 78A0 B1    
 317b 78A1 C90A         BYTE 201,10,208,3
 317b 78A3 D003  
 318b 78A5 098C         BYTE 9,140,31,144           ; CALL SOUND(200,220,1,330,1,587,1)
 318b 78A7 1F90  
 319b 78A9 A215         BYTE 162,21,176
 319b 78AB B0    
 320b 78AC CE0B         BYTE 206,11,208,12
 320b 78AE D00C  
 321b 78B0 098C         BYTE 9,140,31,144           ; CALL SOUND(400,220,1,330,1,659,1)
 321b 78B2 1F90  
 322b 78B4 A215         BYTE 162,21,176
 322b 78B6 B0    
 323b 78B7 C90A         BYTE 201,10,208,25
 323b 78B9 D019  
 324b 78BB 098C         BYTE 9,140,31,144           ; CALL SOUND(400,220,1,659,1,1047,1)
 324b 78BD 1F90  
 325b 78BF A90A         BYTE 169,10,176
 325b 78C1 B0    
 326b 78C2 CA06         BYTE 202,6,208,25
 326b 78C4 D019  
 327b 78C6 098C         BYTE 9,140,31,144           ; CALL SOUND(400,220,1,330,1,988,1)
 327b 78C8 1F90  
 328b 78CA A215         BYTE 162,21,176
 328b 78CC B0    
 329b 78CD C107         BYTE 193,7,208,25
 329b 78CF D019  
 330b 78D1 098C         BYTE 9,140,31,144           ; CALL SOUND(600,220,1,330,1,880,1)
 330b 78D3 1F90  
 331b 78D5 A215         BYTE 162,21,176
 331b 78D7 B0    
 332b 78D8 CF07         BYTE 207,7,208,37
 332b 78DA D025  
 333b 78DC 039F         BYTE >03,>9F,>BF,>DF        ; Turn off generators
 333b 78DE BFDF  
 334b 78E0 0000         BYTE >00,>00,>00
 334b 78E2 00    
 335b           ********@*****@*********************@**************************  
 336b 78E3 098E SOUND3  BYTE 9,142,15,145           ; CALL SOUND(-50,440,3,554,3,659,1)
 336b 78E5 0F91  
 337b 78E7 A90C         BYTE 169,12,177
 337b 78E9 B1    
 338b 78EA C90A         BYTE 201,10,208,3
 338b 78EC D003  
 339b 78EE 098E         BYTE 9,142,15,145           ; CALL SOUND(50,440,3,554,3,880,1)
 339b 78F0 0F91  
 340b 78F2 A90C         BYTE 169,12,177
 340b 78F4 B1    
 341b 78F5 CF07         BYTE 207,7,208,3
 341b 78F7 D003  
 342b 78F9 0980         BYTE 9,128,7,144            ; CALL SOUND(50,988,1)
 342b 78FB 0790  
 343b 78FD A83F         BYTE 168,63,191
 343b 78FF BF    
 344b 7900 C83F         BYTE 200,63,223,3
 344b 7902 DF03  
 345b 7904 098E         BYTE 9,142,15,145           ; CALL SOUND(200,440,3,554,3,1109,1)
 345b 7906 0F91  
 346b 7908 A90C         BYTE 169,12,177
 346b 790A B1    
 347b 790B C406         BYTE 196,6,208,12
 347b 790D D00C  
 348b 790F 039F         BYTE >03,>9F,>BF,>DF        ; Turn off generators
 348b 7911 BFDF  
 349b 7913 00           BYTE >00                          
->End Level [b] *               'hc_source4.a99'
  75  7914 0000         END
  75            


 Assembly Complete - Errors: 0,  Warnings: 0


 ------ Symbol Listing ------

 ADD10  ABS:6F7C ADD10
 ADD100 ABS:6E22 ADD100
 ANYKEY ABS:603C ANYKEY
 BANK0  ABS:6000 BANK0
 BANK1  ABS:6002 BANK1
 BBIT0  ABS:6026 BBIT0
 BBIT1  ABS:6028 BBIT1
 BBIT2  ABS:602A BBIT2
 BBIT3  ABS:602C BBIT3
 BBIT4  ABS:602E BBIT4
 BBIT5  ABS:6030 BBIT5
 BBIT6  ABS:6032 BBIT6
 BBIT7  ABS:6034 BBIT7
 BD0    ABS:6048 BD0
 BD1    ABS:6049 BD1
 BD2    ABS:604A BD2
 BD208  ABS:6052 BD208
 BD3    ABS:604B BD3
 BD4    ABS:604C BD4
 BD5    ABS:604D BD5
 BD6    ABS:604E BD6
 BD7    ABS:604F BD7
 BD8    ABS:6050 BD8
 BD9    ABS:6051 BD9
 BDIG32 ABS:62B6 BDIG32
 BEEPOS ABS:6E84 BEEPOS
 BH10   ABS:603D BH10
 BH20   ABS:603B BH20
 BH40   ABS:6039 BH40
 BH80   ABS:6037 BH80
 BLKMS1 ABS:6F9A BLKMS1
 BLKMS2 ABS:6FA4 BLKMS2
 BLKMSG ABS:6F8C BLKMSG
 BSPEED ABS:8348 BSPEED
 BTIHI  ABS:8314 BTIHI
 BUFFER ABS:834A BUFFER
 BVDPST ABS:831A BVDPST
 BX     ABS:832B BX
 BY     ABS:832A BY
 CLRKEY ABS:68E2 CLRKEY
 CLRMSG ABS:6E9E CLRMSG
 CLSLOT ABS:69A6 CLSLOT
 COINC  ABS:6C92 COINC
 COINCZ ABS:6CCA COINCZ
 COLOR2 ABS:70AA COLOR2
 COLORS ABS:709A COLORS
 CONFIG ABS:000C CONFIG
 COUNTE ABS:834A COUNTER
 CPYG2M ABS:6152 CPYG2M
 CPYG2V ABS:6172 CPYG2V
 CPYM1  ABS:60D2 CPYM1
 CPYM2  ABS:60DA CPYM2
 CPYM2M ABS:60C0 CPYM2M
 CPYM2V ABS:610A CPYM2V
 CPYM3  ABS:60EA CPYM3
 CPYM4  ABS:60F4 CPYM4
 CPYMZ  ABS:6100 CPYMZ
 CPYODD ABS:6102 CPYODD
 CPYV2M ABS:6130 CPYV2M
 DMPSA1 ABS:6CE4 DMPSA1
 DMPSAT ABS:6CCE DMPSAT
 DMPSAZ ABS:6CF8 DMPSAZ
 DOSCOR ABS:6CFC DOSCOR
 ENKNL  ABS:0040 ENKNL
 ENUSR  ABS:0100 ENUSR
 EOL    ABS:FFFF EOL
 FILBO1 ABS:6414 FILBO1
 FILBO2 ABS:6420 FILBO2
 FILBO3 ABS:6440 FILBO3
 FILBOX ABS:6404 FILBOX
 FILM   ABS:6074 FILM
 FILM1  ABS:6084 FILM1
 FILM2  ABS:608A FILM2
 FILMZ  ABS:6096 FILMZ
 FILV   ABS:6098 FILV
 FILZZ  ABS:60BE FILZZ
 FLOWER ABS:6FEE FLOWER
 FNOPT1 ABS:0000 FNOPT1
 FNOPT2 ABS:0006 FNOPT2
 FNOPT3 ABS:000C FNOPT3
 FNOPT4 ABS:0012 FNOPT4
 FNOPT5 ABS:8000 FNOPT5
 FNOPT6 ABS:8006 FNOPT6
 FNOPT7 ABS:800C FNOPT7
 FNOPT8 ABS:8012 FNOPT8
 GAME   ABS:6B74 GAME
 GAME1  ABS:6C38 GAME1
 GAME2  ABS:6C8E GAME2
 GASTAT ABS:8346 GASTAT
 GETKEY ABS:68D4 GETKEY
 GETKEZ ABS:68E6 GETKEZ
 GO     ABS:700D GO
 GOGAM1 ABS:6EDE GOGAM1
 GOGAME ABS:6EB6 GOGAME
 GRAPH1 ABS:6054 GRAPH1
 GRMHDR ABS:6000 GRMHDR
 GRMRA  ABS:9802 GRMRA
 GRMRD  ABS:9800 GRMRD
 GRMWA  ABS:9C02 GRMWA
 GRMWD  ABS:9C00 GRMWD
 HCHAR  ABS:63A0 HCHAR
 HCHAR1 ABS:63BA HCHAR1
 HCHAR2 ABS:63C4 HCHAR2
 HCOMB  ABS:6FF8 HCOMB
 HOOKOK ABS:68EC HOOKOK
 INTOFF ABS:624C INTOFF
 INTON  ABS:6252 INTON
 K1DN   ABS:0040 K1DN
 K1DNLF ABS:0240 K1DNLF
 K1DNRG ABS:0140 K1DNRG
 K1FIRE ABS:0020 K1FIRE
 K1LF   ABS:0200 K1LF
 K1RG   ABS:0100 K1RG
 K1UP   ABS:0080 K1UP
 K1UPLF ABS:0280 K1UPLF
 K1UPRG ABS:0180 K1UPRG
 K2DN   ABS:0002 K2DN
 K2DNLF ABS:0012 K2DNLF
 K2DNRG ABS:000A K2DNRG
 K2FIRE ABS:0001 K2FIRE
 K2LF   ABS:0010 K2LF
 K2RG   ABS:0008 K2RG
 K2UP   ABS:0004 K2UP
 K2UPLF ABS:0014 K2UPLF
 K2UPRG ABS:000C K2UPRG
 KALPHA ABS:8000 KALPHA
 KBACK  ABS:1000 KBACK
 KBCOL5 ABS:6740 KBCOL5
 KBCTRL ABS:68A4 KBCTRL
 KBEOC  ABS:6722 KBEOC
 KBFCTN ABS:6874 KBFCTN
 KBMAP0 ABS:6716 KBMAP0
 KBMAP1 ABS:6724 KBMAP1
 KBMAP2 ABS:6732 KBMAP2
 KBMAP6 ABS:674A KBMAP6
 KBMAP7 ABS:6760 KBMAP7
 KBSHFT ABS:6844 KBSHFT
 KBSMAL ABS:6814 KBSMAL
 KDATA  ABS:6068 KDATA
 KENTER ABS:4000 KENTER
 KERNE1 ABS:69C2 KERNE1
 KERNEL ABS:69B4 KERNEL
 KERNEZ ABS:69D0 KERNEZ
 KFREE  ABS:0400 KFREE
 KPAUSE ABS:0800 KPAUSE
 KREDO  ABS:2000 KREDO
 LDFNT  ABS:62F6 LDFNT
 LDFNT1 ABS:630E LDFNT1
 LDFNT2 ABS:633E LDFNT2
 LDFNT3 ABS:6352 LDFNT3
 LDFNT4 ABS:6366 LDFNT4
 LETTRS ABS:72A5 LETTRS
 LEVEL  ABS:8344 LEVEL
 LIVES  ABS:8342 LIVES
 MAIN   ABS:6AC8 MAIN
 MCCODE ABS:606A MCCODE
 MCLOOP ABS:8320 MCLOOP
 MCSPRD ABS:8322 MCSPRD
 MKHOO1 ABS:69DC MKHOO1
 MKHOOK ABS:69D4 MKHOOK
 MKNUM  ABS:64CA MKNUM
 MKNUM1 ABS:64DC MKNUM1
 MKNUM2 ABS:64F8 MKNUM2
 MKNUM3 ABS:64FC MKNUM3
 MKNUM4 ABS:6506 MKNUM4
 MKNUM5 ABS:650E MKNUM5
 MKSLO1 ABS:69A2 MKSLO1
 MKSLOT ABS:6988 MKSLOT
 MMPLA1 ABS:65B6 MMPLA1
 MMPLA2 ABS:65BC MMPLA2
 MMPLAY ABS:65AE MMPLAY
 MSG1   ABS:7018 MSG1
 MSG2   ABS:7031 MSG2
 MSG3   ABS:704D MSG3
 MSG4   ABS:7065 MSG4
 MSG5   ABS:7073 MSG5
 MSG6   ABS:707E MSG6
 MUTE   ABS:652C MUTE
 MUTE2  ABS:6530 MUTE2
 MUTTAB ABS:6546 MUTTAB
 MVBEE  ABS:6D26 MVBEE
 MVBEE1 ABS:6D34 MVBEE1
 MVBEE2 ABS:6D40 MVBEE2
 MVBEE3 ABS:6D54 MVBEE3
 MVBEE4 ABS:6D58 MVBEE4
 MVBEE5 ABS:6D68 MVBEE5
 MVBEE6 ABS:6D6E MVBEE6
 MVBEE7 ABS:6D76 MVBEE7
 MVBEE8 ABS:6D88 MVBEE8
 MVBEE9 ABS:6D92 MVBEE9
 MVBEEY ABS:6DD8 MVBEEY
 MVBEEZ ABS:6DE6 MVBEEZ
 MVCOMB ABS:6E1E MVCOMB
 MVKBEE ABS:6E24 MVKBEE
 MVLIM  ABS:6E1A MVLIM
 MVLIST ABS:6DEA MVLIST
 MVPLA1 ABS:6E94 MVPLA1
 MVPLA2 ABS:6E9A MVPLA2
 MVPLAN ABS:6E86 MVPLAN
 NOFONT ABS:FFFF NOFONT
 NUM1   ABS:3030 NUM1
 NUM2   ABS:3020 NUM2
 OOPS   ABS:6FFD OOPS
 PALON  ABS:2000 PALON
 POPR0  ABS:69E4 POPR0
 POPR1  ABS:69E2 POPR1
 POPR2  ABS:69E0 POPR2
 POPR3  ABS:69DE POPR3
 POPRT  ABS:69E6 POPRT
 PROG   ABS:6010 PROG
 PUTAT  ABS:6398 PUTAT
 PUTBO1 ABS:645C PUTBO1
 PUTBO2 ABS:6470 PUTBO2
 PUTBO3 ABS:647A PUTBO3
 PUTBO4 ABS:6480 PUTBO4
 PUTBO6 ABS:64AC PUTBO6
 PUTBO7 ABS:64BA PUTBO7
 PUTBO8 ABS:64C4 PUTBO8
 PUTBOX ABS:6444 PUTBOX
 PUTNUM ABS:6522 PUTNUM
 PUTSTR ABS:6386 PUTSTR
 PUTV01 ABS:6226 PUTV01
 PUTVR  ABS:6212 PUTVR
 PUTVRX ABS:6214 PUTVRX
 PX2YX  ABS:62B8 PX2YX
 PX2YX1 ABS:62C2 PX2YX1
 R0     ABS:0000 R0
 R0HB   ABS:8300 R0HB
 R0LB   ABS:8301 R0LB
 R1     ABS:0001 R1
 R10    ABS:000A R10
 R10HB  ABS:8314 R10HB
 R10LB  ABS:8315 R10LB
 R11    ABS:000B R11
 R11HB  ABS:8316 R11HB
 R11LB  ABS:8317 R11LB
 R12    ABS:000C R12
 R12HB  ABS:8318 R12HB
 R12LB  ABS:8319 R12LB
 R13    ABS:000D R13
 R13HB  ABS:831A R13HB
 R13LB  ABS:831B R13LB
 R14    ABS:000E R14
 R14HB  ABS:831C R14HB
 R14LB  ABS:831D R14LB
 R15    ABS:000F R15
 R15HB  ABS:831E R15HB
 R15LB  ABS:831F R15LB
 R1HB   ABS:8302 R1HB
 R1LB   ABS:8303 R1LB
 R2     ABS:0002 R2
 R2HB   ABS:8304 R2HB
 R2LB   ABS:8305 R2LB
 R3     ABS:0003 R3
 R3HB   ABS:8306 R3HB
 R3LB   ABS:8307 R3LB
 R4     ABS:0004 R4
 R4HB   ABS:8308 R4HB
 R4LB   ABS:8309 R4LB
 R5     ABS:0005 R5
 R5HB   ABS:830A R5HB
 R5LB   ABS:830B R5LB
 R6     ABS:0006 R6
 R6HB   ABS:830C R6HB
 R6LB   ABS:830D R6LB
 R7     ABS:0007 R7
 R7HB   ABS:830E R7HB
 R7LB   ABS:830F R7LB
 R8     ABS:0008 R8
 R8HB   ABS:8310 R8HB
 R8LB   ABS:8311 R8LB
 R9     ABS:0009 R9
 R9HB   ABS:8312 R9HB
 R9LB   ABS:8313 R9LB
 RAMSAT ABS:8370 RAMSAT
 REALK1 ABS:6792 REALK1
 REALK2 ABS:679A REALK2
 REALK3 ABS:67A2 REALK3
 REALK4 ABS:67AC REALK4
 REALK5 ABS:67B2 REALK5
 REALK6 ABS:67CC REALK6
 REALK7 ABS:67D0 REALK7
 REALK8 ABS:67DE REALK8
 REALK9 ABS:67EA REALK9
 REALKA ABS:6802 REALKA
 REALKB ABS:6776 REALKB
 REALKZ ABS:680C REALKZ
 RND    ABS:69EA RND
 RND1   ABS:69F6 RND1
 RND2   ABS:69FE RND2
 RNDDAT ABS:6A08 RNDDAT
 RNDX   ABS:69EC RNDX
 RUNLI1 ABS:6A0E RUNLI1
 RUNLI2 ABS:6A1A RUNLI2
 RUNLI3 ABS:6A1E RUNLI3
 RUNLI4 ABS:6A30 RUNLI4
 RUNLI5 ABS:6A3A RUNLI5
 RUNLI6 ABS:6A48 RUNLI6
 RUNLI7 ABS:6A56 RUNLI7
 RUNLI8 ABS:6A78 RUNLI8
 RUNLI9 ABS:6A7C RUNLI9
 RUNLIA ABS:6A80 RUNLIA
 RUNLIB ABS:6A0A RUNLIB
 RUNLIC ABS:6ABC RUNLIC
 S16X16 ABS:626A S16X16
 S8X8   ABS:6264 S8X8
 SCORE  ABS:8340 SCORE
 SCRDIM ABS:62EC SCRDIM
 SCROFF ABS:6240 SCROFF
 SCRON  ABS:6246 SCRON
 SDEXI1 ABS:65E0 SDEXI1
 SDEXI2 ABS:65E2 SDEXI2
 SDEXIT ABS:65CE SDEXIT
 SDOPT1 ABS:0007 SDOPT1
 SDOPT2 ABS:0005 SDOPT2
 SDOPT3 ABS:0006 SDOPT3
 SDOPT4 ABS:0004 SDOPT4
 SDPLA1 ABS:6568 SDPLA1
 SDPLA2 ABS:6572 SDPLA2
 SDPLA3 ABS:6574 SDPLA3
 SDPLAY ABS:6560 SDPLAY
 SDPREP ABS:654A SDPREP
 SHOW1  ABS:6F12 SHOW1
 SHOW2  ABS:6F2A SHOW2
 SHOW3  ABS:6F34 SHOW3
 SHOW4  ABS:6F3E SHOW4
 SHOW5  ABS:6F48 SHOW5
 SHOWY  ABS:6F70 SHOWY
 SHOWZ  ABS:6F76 SHOWZ
 SLOTOK ABS:696A SLOTOK
 SMAG1X ABS:6258 SMAG1X
 SMAG2X ABS:625E SMAG2X
 SOUND  ABS:8400 SOUND
 SOUND1 ABS:7605 SOUND1
 SOUND2 ABS:789A SOUND2
 SOUND3 ABS:78E3 SOUND3
 SPCHRD ABS:9000 SPCHRD
 SPCHWT ABS:9400 SPCHWT
 SPCODE ABS:6070 SPCODE
 SPCON1 ABS:661E SPCON1
 SPCONN ABS:660E SPCONN
 SPFBCK ABS:0001 SPFBCK
 SPFCLR ABS:00A0 SPFCLR
 SPFONT ABS:800C SPFONT
 SPKEX1 ABS:664E SPKEX1
 SPKEX3 ABS:6660 SPKEX3
 SPKEX4 ABS:6668 SPKEX4
 SPKEX5 ABS:6670 SPKEX5
 SPKEX6 ABS:6678 SPKEX6
 SPKEX7 ABS:668C SPKEX7
 SPKEX8 ABS:668E SPKEX8
 SPKEXT ABS:6640 SPKEXT
 SPKOFF ABS:FF00 SPKOFF
 SPKON  ABS:6000 SPKON
 SPNBE1 ABS:6E64 SPNBE1
 SPNBE2 ABS:6E7A SPNBE2
 SPNBE3 ABS:6E7E SPNBE3
 SPNBEE ABS:6E3E SPNBEE
 SPOPT1 ABS:1400 SPOPT1
 SPOPT2 ABS:1000 SPOPT2
 SPPLA1 ABS:6632 SPPLA1
 SPPLAY ABS:662C SPPLAY
 SPPLAZ ABS:6696 SPPLAZ
 SPPREP ABS:6620 SPPREP
 SPRPAT ABS:74E5 SPRPAT
 SPRSAT ABS:6FAA SPRSAT
 SPSTA1 ABS:6600 SPSTA1
 SPSTAT ABS:65E8 SPSTAT
 SPVMOD ABS:6054 SPVMOD
 STACK  ABS:0009 STACK
 START  ABS:6B68 START
 START1 ABS:6B70 START1
 TALKOF ABS:00FF TALKOF
 TALKON ABS:0060 TALKON
 TIMERS ABS:8350 TIMERS
 TIMTAB ABS:6FA8 TIMTAB
 TITLE1 ABS:70BA TITLE1
 TITLE2 ABS:719B TITLE2
 TLTPAT ABS:7265 TLTPAT
 TMDAT  ABS:6986 TMDAT
 TMGR   ABS:68E8 TMGR
 TMGR1  ABS:68EC TMGR1
 TMGR10 ABS:696E TMGR10
 TMGR11 ABS:697C TMGR11
 TMGR12 ABS:6980 TMGR12
 TMGR2  ABS:6902 TMGR2
 TMGR3  ABS:6912 TMGR3
 TMGR4  ABS:6924 TMGR4
 TMGR5  ABS:693A TMGR5
 TMGR6  ABS:693E TMGR6
 TMGR7  ABS:6942 TMGR7
 TMGR8  ABS:6944 TMGR8
 TMGR9  ABS:694C TMGR9
 TMP0   ABS:0004 TMP0
 TMP002 ABS:61A4 TMP002
 TMP003 ABS:6170 TMP003
 TMP004 ABS:6AC4 TMP004
 TMP005 ABS:6AC6 TMP005
 TMP006 ABS:636E TMP006
 TMP007 ABS:6150 TMP007
 TMP008 ABS:612E TMP008
 TMP010 ABS:6698 TMP010
 TMP011 ABS:6108 TMP011
 TMP0HB ABS:8308 TMP0HB
 TMP0LB ABS:8309 TMP0LB
 TMP1   ABS:0005 TMP1
 TMP1HB ABS:830A TMP1HB
 TMP1LB ABS:830B TMP1LB
 TMP2   ABS:0006 TMP2
 TMP2HB ABS:830C TMP2HB
 TMP2LB ABS:830D TMP2LB
 TMP3   ABS:0007 TMP3
 TMP3HB ABS:830E TMP3HB
 TMP3LB ABS:830F TMP3LB
 TMP4   ABS:0008 TMP4
 TMP4HB ABS:8310 TMP4HB
 TMP4LB ABS:8311 TMP4LB
 TMP5   ABS:0009 TMP5
 TMP50  ABS:6F7A TMP50
 TMP5HB ABS:8310 TMP5HB
 TMP5LB ABS:8311 TMP5LB
 TMP6   ABS:000F TMP6
 TMP6HB ABS:831E TMP6HB
 TMP6LB ABS:831F TMP6LB
 TMPDAT ABS:6E9C TMPDAT
 TXT1   ABS:6FC2 TXT1
 TXT2   ABS:6FD3 TXT2
 TXT3   ABS:6FDC TXT3
 TXT4   ABS:6FE2 TXT4
 TXT5   ABS:6FE8 TXT5
 TXTMOD ABS:605E TXTMOD
 V22OS  ABS:0020 V22OS
 VCHAR  ABS:63C8 VCHAR
 VCHAR1 ABS:63CE VCHAR1
 VCHAR2 ABS:63DC VCHAR2
 VCHAR3 ABS:63E0 VCHAR3
 VCHAR4 ABS:6400 VCHAR4
 VDPA   ABS:8C02 VDPA
 VDPLA1 ABS:6592 VDPLA1
 VDPLA2 ABS:6598 VDPLA2
 VDPLA3 ABS:65A8 VDPLA3
 VDPLAY ABS:657A VDPLAY
 VDPR   ABS:8800 VDPR
 VDPR0  ABS:831C VDPR0
 VDPR01 ABS:000E VDPR01
 VDPR1  ABS:831D VDPR1
 VDPRW  ABS:000F VDPRW
 VDPS   ABS:8802 VDPS
 VDPW   ABS:8C00 VDPW
 VDRA   ABS:61AA VDRA
 VDWA   ABS:61A6 VDWA
 VGETB  ABS:61C8 VGETB
 VIDTA1 ABS:61F4 VIDTA1
 VIDTAB ABS:61D8 VIDTAB
 VIRTK1 ABS:66B4 VIRTK1
 VIRTK2 ABS:66CC VIRTK2
 VIRTK3 ABS:66D2 VIRTK3
 VIRTK4 ABS:66DC VIRTK4
 VIRTK5 ABS:66EE VIRTK5
 VIRTK6 ABS:66F4 VIRTK6
 VIRTK7 ABS:66FE VIRTK7
 VIRTK8 ABS:670A VIRTK8
 VIRTK9 ABS:6714 VIRTK9
 VIRTKB ABS:669A VIRTKB
 VPUTB  ABS:61B8 VPUTB
 WAIKE1 ABS:6F88 WAIKE1
 WAIKEY ABS:6F7E WAIKEY
 WASCKB ABS:833E WASCKB
 WBASE  ABS:8328 WBASE
 WBIT0  ABS:6026 WBIT0
 WBIT1  ABS:6028 WBIT1
 WBIT10 ABS:603A WBIT10
 WBIT11 ABS:603C WBIT11
 WBIT12 ABS:603E WBIT12
 WBIT13 ABS:6040 WBIT13
 WBIT14 ABS:6042 WBIT14
 WBIT15 ABS:6044 WBIT15
 WBIT2  ABS:602A WBIT2
 WBIT3  ABS:602C WBIT3
 WBIT4  ABS:602E WBIT4
 WBIT5  ABS:6030 WBIT5
 WBIT6  ABS:6032 WBIT6
 WBIT7  ABS:6034 WBIT7
 WBIT8  ABS:6036 WBIT8
 WBIT9  ABS:6038 WBIT9
 WCOLMN ABS:833C WCOLMN
 WH100  ABS:6034 WH100
 WH4000 ABS:6028 WH4000
 WHFFFF ABS:6046 WHFFFF
 WRAMF  ABS:832E WRAMF
 WRAMK  ABS:8338 WRAMK
 WRAML  ABS:833A WRAML
 WS1    ABS:8300 WS1
 WSDLST ABS:8334 WSDLST
 WSDTMP ABS:8336 WSDTMP
 WSEED  ABS:833A WSEED
 WSPEAK ABS:8338 WSPEAK
 WTITAB ABS:832C WTITAB
 WTITMP ABS:8330 WTITMP
 WTIUSR ABS:832E WTIUSR
 WVRTKB ABS:8332 WVRTKB
 WYX    ABS:832A WYX
 XFILM  ABS:607A XFILM
 XFILV  ABS:609E XFILV
 XIDTAB ABS:61DA XIDTAB
 XLSLOT ABS:69A8 XLSLOT
 XPYG2M ABS:6158 XPYG2M
 XPYG2V ABS:6178 XPYG2V
 XPYM2M ABS:60C6 XPYM2M
 XPYM2V ABS:6110 XPYM2V
 XPYV2M ABS:6136 XPYV2M
 XUTSTR ABS:638A XUTSTR
 XVGETB ABS:61CA XVGETB
 XVPUTB ABS:61BC XVPUTB
 YX2PI1 ABS:62A4 YX2PI1
 YX2PI2 ABS:62AA YX2PI2
 YX2PI3 ABS:62B4 YX2PI3
 YX2PNT ABS:6270 YX2PNT
 YX2PX  ABS:6290 YX2PX
 YX2PXX ABS:6294 YX2PXX
