
 Xa99 Cross Assembler
VERSION 1.2/A                                                PAGE 0001
  0001            ************************************************************
  0002            *                           SPECTRA2 
  0003            *                      Arcade Game Library 
  0004            *                             for
  0005            *           the Texas Instruments TI-99/4A & clones
  0006            *                2010-2015 by Filip Van Vooren
  0007            ************************************************************
  0008            * This file: runlib.a99 
  0009            ************************************************************
  0010            * v1.0    2011/02   Initial version
  0011            * v1.1    2011/05   See release_notes.txt for details
  0012            * v1.2    2015/01   Several modifications
  0013            ************************************************************
  0014            
  0015            
  0016            ***** TO DO ****
  0017            *****
  0018            * WARNING PUTBOX not compatible with V1 width/height swapped
  0019            *
  0020            * WAUX1..3 only to be used from high-level functions
  0021            *
  0022            *****
  0023            * Replace ANDI CONFIG,>7FFF with 
  0024            *        SLA  CONFIG,1 \ 4 bytes of machine code
  0025            *        SRL  CONFIG,1 / 
  0026            *****        
  0027            * Add new subroutines to reference manual
  0028            * Implement RLE decompression routine to be used with severa
  0029            * of the built-in subroutines
  0030            *
  0031            * PUTBOX
  0032            * SPEECH PLAYER  (how far can be compress speech ?)
  0033            * SOUND PLAYER
  0034            ****************
  0035            * Update examples for matching runlib ....
  0036            * example1.a99   done
  0037            * example3.a99   done
  0038            * example4.a99   done
  0039            * example5.a99   done
  0040            * example6.a99   done
  0041            ****************
  0042            
  0043            *///////////////////////////////////////////////////////////
  0044            *                       RUNLIB MEMORY SETUP
  0045            *///////////////////////////////////////////////////////////
  0046            
  0047            * Equates and Memory setup ..:
  0048            ************************************************************
  0049            * >8300 - >8341     Scratchpad memory layout
  0050            ********@*****@*********************@***********************
  0051      8300  WS1     EQU   >8300                 ; 32 - Primary workspace
  0052      8320  MCLOOP  EQU   >8320                 ; 08 - Machine code for 
  0053      8328  WBASE   EQU   >8328                 ; 02 - PNT base address
  0054      832A  WYX     EQU   >832A                 ; 02 - Cursor YX positio
  0055      832C  WTITAB  EQU   >832C                 ; 02 - Timers: Address o
  0056      832E  WTIUSR  EQU   >832E                 ; 02 - Timers: Address o
  0057      8330  WTITMP  EQU   >8330                 ; 02 - Timers: Internal 
  0058      8332  WVRTKB  EQU   >8332                 ; 02 - Virtual keyboard 
  0059      8334  WSDLST  EQU   >8334                 ; 02 - Sound player: Tun

 Xa99 Cross Assembler
VERSION 1.2/A                                                PAGE 0002
  0060      8336  WSDTMP  EQU   >8336                 ; 02 - Sound player: Tem
  0061      8338  WSPEAK  EQU   >8338                 ; 02 - Speech player: Ad
  0062      833A  WCOLMN  EQU   >833A                 ; 02 - Screen size, colu
  0063      833C  WAUX1   EQU   >833C                 ; 02 - Temporary storage
  0064      833E  WAUX2   EQU   >833E                 ; 02 - Temporary storage
  0065      8340  WAUX3   EQU   >8340                 ; 02 - Temporary storage
  0066            ************************************************************
  0067      832A  BY      EQU   WYX                   ;      Cursor Y position
  0068      832B  BX      EQU   WYX+1                 ;      Cursor X position
  0069      8322  MCSPRD  EQU   MCLOOP+2              ;      Speech read routi
  0070            ************************************************************
  0071            * Register usage
  0072            * R0-R3   General purpose registers
  0073            * R4-R8   Temporary registers
  0074            * R9      Stack pointer
  0075            * R10     Highest slot in use + Timer counter
  0076            * R11     Subroutine return address
  0077            * R12     Configuration register
  0078            * R13     Copy of VDP status byte and counter for sound play
  0079            * R14     Copy of VDP register #0 and VDP register #1 bytes
  0080            * R15     VDP read/write address
  0081            ************************************************************
  0082            * Workspace and register equates
  0083            ********@*****@*********************@***********************
  0084      0000  R0      EQU   0
  0085      0001  R1      EQU   1
  0086      0002  R2      EQU   2
  0087      0003  R3      EQU   3
  0088      0004  R4      EQU   4
  0089      0005  R5      EQU   5
  0090      0006  R6      EQU   6
  0091      0007  R7      EQU   7
  0092      0008  R8      EQU   8
  0093      0009  R9      EQU   9
  0094      000A  R10     EQU   10
  0095      000B  R11     EQU   11
  0096      000C  R12     EQU   12
  0097      000D  R13     EQU   13
  0098      000E  R14     EQU   14
  0099      000F  R15     EQU   15
  0100      8300  R0HB    EQU   WS1                   ; HI byte R0
  0101      8301  R0LB    EQU   WS1+1                 ; LO byte R0
  0102      8302  R1HB    EQU   WS1+2                 ; HI byte R1
  0103      8303  R1LB    EQU   WS1+3                 ; LO byte R1
  0104      8304  R2HB    EQU   WS1+4                 ; HI byte R2
  0105      8305  R2LB    EQU   WS1+5                 ; LO byte R2
  0106      8306  R3HB    EQU   WS1+6                 ; HI byte R3
  0107      8307  R3LB    EQU   WS1+7                 ; LO byte R3
  0108      8308  R4HB    EQU   WS1+8                 ; HI byte R4
  0109      8309  R4LB    EQU   WS1+9                 ; LO byte R4
  0110      830A  R5HB    EQU   WS1+10                ; HI byte R5
  0111      830B  R5LB    EQU   WS1+11                ; LO byte R5
  0112      830C  R6HB    EQU   WS1+12                ; HI byte R6
  0113      830D  R6LB    EQU   WS1+13                ; LO byte R6
  0114      830E  R7HB    EQU   WS1+14                ; HI byte R7
  0115      830F  R7LB    EQU   WS1+15                ; LO byte R7
  0116      8310  R8HB    EQU   WS1+16                ; HI byte R8
  0117      8311  R8LB    EQU   WS1+17                ; LO byte R8
  0118      8312  R9HB    EQU   WS1+18                ; HI byte R9

 Xa99 Cross Assembler
VERSION 1.2/A                                                PAGE 0003
  0119      8313  R9LB    EQU   WS1+19                ; LO byte R9
  0120      8314  R10HB   EQU   WS1+20                ; HI byte R10
  0121      8315  R10LB   EQU   WS1+21                ; LO byte R10
  0122      8316  R11HB   EQU   WS1+22                ; HI byte R11
  0123      8317  R11LB   EQU   WS1+23                ; LO byte R11
  0124      8318  R12HB   EQU   WS1+24                ; HI byte R12
  0125      8319  R12LB   EQU   WS1+25                ; LO byte R12
  0126      831A  R13HB   EQU   WS1+26                ; HI byte R13
  0127      831B  R13LB   EQU   WS1+27                ; LO byte R13
  0128      831C  R14HB   EQU   WS1+28                ; HI byte R14
  0129      831D  R14LB   EQU   WS1+29                ; LO byte R14
  0130      831E  R15HB   EQU   WS1+30                ; HI byte R15
  0131      831F  R15LB   EQU   WS1+31                ; LO byte R15
  0132      0004  TMP0    EQU   R4                    ; Temp register 0
  0133      0005  TMP1    EQU   R5                    ; Temp register 1
  0134      0006  TMP2    EQU   R6                    ; Temp register 2
  0135      0007  TMP3    EQU   R7                    ; Temp register 3
  0136      0008  TMP4    EQU   R8                    ; Temp register 4
  0137      0009  TMP5    EQU   R9                    ; Temp register 5
  0138      000F  TMP6    EQU   R15                   ; Temp register 6
  0139      8308  TMP0HB  EQU   WS1+8                 ; HI byte R4
  0140      8309  TMP0LB  EQU   WS1+9                 ; LO byte R4
  0141      830A  TMP1HB  EQU   WS1+10                ; HI byte R5
  0142      830B  TMP1LB  EQU   WS1+11                ; LO byte R5
  0143      830C  TMP2HB  EQU   WS1+12                ; HI byte R6
  0144      830D  TMP2LB  EQU   WS1+13                ; LO byte R6
  0145      830E  TMP3HB  EQU   WS1+14                ; HI byte R7
  0146      830F  TMP3LB  EQU   WS1+15                ; LO byte R7
  0147      8310  TMP4HB  EQU   WS1+16                ; HI byte R8
  0148      8311  TMP4LB  EQU   WS1+17                ; LO byte R8
  0149      8310  TMP5HB  EQU   WS1+16                ; HI byte R8
  0150      8311  TMP5LB  EQU   WS1+17                ; LO byte R8
  0151      831E  TMP6HB  EQU   WS1+30                ; HI byte R15
  0152      831F  TMP6LB  EQU   WS1+31                ; LO byte R15
  0153            ************************************************************
  0154            * Equates for VDP, GROM, SOUND, SPEECH ports
  0155            ********@*****@*********************@***********************
  0156      8400  SOUND   EQU   >8400                 ; Sound generator addres
  0157      8800  VDPR    EQU   >8800                 ; VDP read data window a
  0158      8C00  VDPW    EQU   >8C00                 ; VDP write data window 
  0159      8802  VDPS    EQU   >8802                 ; VDP status register
  0160      8C02  VDPA    EQU   >8C02                 ; VDP address register
  0161      9C02  GRMWA   EQU   >9C02                 ; GROM set write address
  0162      9802  GRMRA   EQU   >9802                 ; GROM set read address
  0163      9800  GRMRD   EQU   >9800                 ; GROM read byte
  0164      9C00  GRMWD   EQU   >9C00                 ; GROM write byte
  0165      9000  SPCHRD  EQU   >9000                 ; Address of speech synt
  0166      9400  SPCHWT	EQU   >9400                 ; Address of speech synth
  0167            ************************************************************
  0168            * Equates for registers
  0169            ********@*****@*********************@***********************
  0170      0009  STACK   EQU   R9                    ; Stack pointer
  0171      8314  BTIHI   EQU   WS1+20                ; Highest slot in use (H
  0172      000C  CONFIG  EQU   R12                   ; SPECTRA configuration 
  0173      831A  BVDPST  EQU   WS1+26                ; Copy of VDP status reg
  0174      000E  VDPR01  EQU   R14                   ; Copy of VDP#0 and VDP#
  0175      831C  VDPR0   EQU   WS1+28                ; High byte of R14. Is V
  0176      831D  VDPR1   EQU   WS1+29                ; Low byte  of R14. Is V
  0177      000F  VDPRW   EQU   R15                   ; Contains VDP read/writ

 Xa99 Cross Assembler
VERSION 1.2/A                                                PAGE 0004
  0178            ************************************************************
  0179            * Equates for memory locations
  0180            ********@*****@*********************@***********************
  0181      832E  WRAMF   EQU   >832E                 ; Memory location F
  0182      8338  WRAMK   EQU   >8338                 ; Memory location K
  0183      833A  WRAML   EQU   >833A                 ; Memory location L
  0184            ************************************************************
  0185            * The config register equates
  0186            *-----------------------------------------------------------
  0187            * Configuration flags
  0188            * ===================
  0189            * 
  0190            * ; 15  Sound player: tune source       1=ROM/RAM      0=VDP
  0191            * ; 14  Sound player: repeat tune       1=yes          0=no
  0192            * ; 13  Sound player: enabled           1=yes          0=no 
  0193            * ; 12  Keyboard: mode                  1=real         0=vir
  0194            * ; 11  Keyboard: ANY key pressed       1=yes          0=no
  0195            * ; 10  TI-99/4A v2.2 OS                1=yes          0=no
  0196            * ; 09  Timer: Kernel thread enabled    1=yes          0=no
  0197            * ; 08  Timer: Block kernel thread      1=yes          0=no	
  0198            * ; 07  Timer: User hook enabled        1=yes          0=no	
  0199            * ; 06  Timer: Block user hook          1=yes          0=no
  0200            * ; 05  speech player: external voice   1=yes          0=no
  0201            * ; 04  Speech player: busy             1=yes          0=no
  0202            * ; 03  Speech player: enabled          1=yes          0=no
  0203            * ; 02  VDP9918 PAL version             1=yes(50)      0=no(
  0204            * ; 01  Subroutine state flag 1         1=on           0=off
  0205            * ; 00  Subroutine state flag 0         1=on           0=off
  0206            ********@*****@*********************@***********************
  0207      2000  PALON   EQU   >2000                 ; bit 2=1   (VDP9918 PAL
  0208      0100  ENUSR   EQU   >0100                 ; bit 7=1   (Enable user
  0209      0040  ENKNL   EQU   >0040                 ; bit 9=1   (Enable kern
  0210      0020  V22OS   EQU   >0020                 ; bit 10=1  (TI-99/4A V2
  0211            ************************************************************
  0212            * Subroutine parameter equates
  0213            ************************************************************
  0214      FFFF  EOL     EQU   >FFFF                 ; End-Of-List
  0215      FFFF  NOFONT  EQU   >FFFF                 ; Skip loading font in R
  0216      0000  NOREP   EQU   0                     ; PUTBOX => Value for P3
  0217      3030  NUM1    EQU   >3030                 ; MKNUM  => ASCII 0-9, l
  0218      3020  NUM2    EQU   >3020                 ; MKNUM  => ASCII 0-9, l
  0219      0007  SDOPT1  EQU   7                     ; SDPLAY => 111 (Player 
  0220      0005  SDOPT2  EQU   5                     ; SDPLAY => 101 (Player 
  0221      0006  SDOPT3  EQU   6                     ; SDPLAY => 110 (Player 
  0222      0004  SDOPT4  EQU   4                     ; SDPLAY => 100 (Player 
  0223      0000  FNOPT1  EQU   >0000                 ; LDFNT  => Load TI titl
  0224      0006  FNOPT2  EQU   >0006                 ; LDFNT  => Load upper c
  0225      000C  FNOPT3  EQU   >000C                 ; LDFNT  => Load upper/l
  0226      0012  FNOPT4  EQU   >0012                 ; LDFNT  => Load lower c
  0227      8000  FNOPT5  EQU   >8000                 ; LDFNT  => Load TI titl
  0228      8006  FNOPT6  EQU   >8006                 ; LDFNT  => Load upper c
  0229      800C  FNOPT7  EQU   >800C                 ; LDFNT  => Load upper/l
  0230      8012  FNOPT8  EQU   >8012                 ; LDFNT  => Load lower c
  0231            *-----------------------------------------------------------
  0232            *   Speech player
  0233            *-----------------------------------------------------------
  0234      1400  SPOPT1  EQU   >1400                 ; 0001010000000000 (Play
  0235      1000  SPOPT2  EQU   >1000                 ; 0001000000000000 (Play
  0236      0060  TALKON  EQU   >60                   ; 'start talking' comman

 Xa99 Cross Assembler
VERSION 1.2/A                                                PAGE 0005
  0237      00FF  TALKOF  EQU   >FF                   ; 'stop talking' command
  0238      6000  SPKON	EQU   >6000                 ; 'start talking' command 
  0239      FF00  SPKOFF	EQU   >FF00                 ; 'stop talking' command 
  0240            ************************************************************
  0241            * Virtual keyboard equates
  0242            ************************************************************
  0243            * ; bit  0: ALPHA LOCK down             0=no  1=yes
  0244            * ; bit  1: ENTER                       0=no  1=yes
  0245            * ; bit  2: REDO                        0=no  1=yes
  0246            * ; bit  3: BACK                        0=no  1=yes
  0247            * ; bit  4: Pause                       0=no  1=yes
  0248            * ; bit  5: *free*                      0=no  1=yes
  0249            * ; bit  6: P1 Left                     0=no  1=yes
  0250            * ; bit  7: P1 Right                    0=no  1=yes
  0251            * ; bit  8: P1 Up                       0=no  1=yes
  0252            * ; bit  9: P1 Down                     0=no  1=yes
  0253            * ; bit 10: P1 Space / fire / Q         0=no  1=yes
  0254            * ; bit 11: P2 Left                     0=no  1=yes
  0255            * ; bit 12: P2 Right                    0=no  1=yes
  0256            * ; bit 13: P2 Up                       0=no  1=yes
  0257            * ; bit 14: P2 Down                     0=no  1=yes
  0258            * ; bit 15: P2 Space / fire / Q         0=no  1=yes
  0259            ************************************************************
  0260      8000  KALPHA  EQU   >8000                 ; Virtual key alpha lock
  0261      4000  KENTER  EQU   >4000                 ; Virtual key enter
  0262      2000  KREDO   EQU   >2000                 ; Virtual key REDO
  0263      1000  KBACK   EQU   >1000                 ; Virtual key BACK
  0264      0800  KPAUSE  EQU   >0800                 ; Virtual key pause
  0265      0400  KFREE   EQU   >0400                 ; ***NOT USED YET***
  0266            *-----------------------------------------------------------
  0267            * Keyboard Player 1
  0268            *-----------------------------------------------------------
  0269      0280  K1UPLF  EQU   >0280                 ; Virtual key up   + lef
  0270      0180  K1UPRG  EQU   >0180                 ; Virtual key up   + rig
  0271      0240  K1DNLF  EQU   >0240                 ; Virtual key down + lef
  0272      0140  K1DNRG  EQU   >0140                 ; Virtual key down + rig
  0273      0200  K1LF    EQU   >0200                 ; Virtual key left
  0274      0100  K1RG    EQU   >0100                 ; Virtual key right
  0275      0080  K1UP    EQU   >0080                 ; Virtual key up
  0276      0040  K1DN    EQU   >0040                 ; Virtual key down
  0277      0020  K1FIRE  EQU   >0020                 ; Virtual key fire
  0278            *-----------------------------------------------------------
  0279            * Keyboard Player 2
  0280            *-----------------------------------------------------------
  0281      0014  K2UPLF  EQU   >0014                 ; Virtual key up   + lef
  0282      000C  K2UPRG  EQU   >000C                 ; Virtual key up   + rig
  0283      0012  K2DNLF  EQU   >0012                 ; Virtual key down + lef
  0284      000A  K2DNRG  EQU   >000A                 ; Virtual key down + rig
  0285      0010  K2LF    EQU   >0010                 ; Virtual key left
  0286      0008  K2RG    EQU   >0008                 ; Virtual key right
  0287      0004  K2UP    EQU   >0004                 ; Virtual key up
  0288      0002  K2DN    EQU   >0002                 ; Virtual key down
  0289      0001  K2FIRE  EQU   >0001                 ; Virtual key fire
  0290                    EVEN                        ; Just in case      
  0291            ************************************************************
  0292            
  0293            * Bank switch routine ..:
  0294            ************************************************************
  0295            * SWBNK  (DATA P0, P1) / SWBNKX

 Xa99 Cross Assembler
VERSION 1.2/A                                                PAGE 0006
  0296            ************************************************************
  0297            * SWBNK - Switch ROM bank
  0298            ************************************************************
  0299            *  BL   @SWBNK
  0300            *  DATA P0,P1
  0301            *-----------------------------------------------------------
  0302            *  P0 = Bank selection address (>600X)
  0303            *  P1 = Vector address
  0304            *-----------------------------------------------------------
  0305            *  B    @SWBNKX
  0306            *
  0307            *  TMP0 = Bank selection address (>600X)
  0308            *  TMP1 = Vector address
  0309            *-----------------------------------------------------------
  0310            *  Important! The bank-switch routine must be at the exact
  0311            *  same location accross banks
  0312            ********@*****@*********************@***********************
  0313 0000 C13B  SWBNK   MOV   *R11+,TMP0
  0314 0002 C17B          MOV   *R11+,TMP1
  0315 0004 04D4  SWBNKX  CLR   *TMP0                 ; Select bank in TMP0
  0316 0006 C155          MOV   *TMP1,TMP1
  0317 0008 0455          B     *TMP1                 ; Switch to routine in T
  0318            * :..
  0319            
  0320            * Constant definitions ..:
  0321            ************************************************************
  0322            *                      Some constants
  0323            ********@*****@*********************@***********************
  0324 000A 8000  WBIT0   DATA  >8000                 ; Binary 100000000000000
  0325 000C 4000  WBIT1   DATA  >4000                 ; Binary 010000000000000
  0326 000E 2000  WBIT2   DATA  >2000                 ; Binary 001000000000000
  0327 0010 1000  WBIT3   DATA  >1000                 ; Binary 000100000000000
  0328 0012 0800  WBIT4   DATA  >0800                 ; Binary 000010000000000
  0329 0014 0400  WBIT5   DATA  >0400                 ; Binary 000001000000000
  0330 0016 0200  WBIT6   DATA  >0200                 ; Binary 000000100000000
  0331 0018 0100  WBIT7   DATA  >0100                 ; Binary 000000010000000
  0332 001A 0080  WBIT8   DATA  >0080                 ; Binary 000000001000000
  0333 001C 0040  WBIT9   DATA  >0040                 ; Binary 000000000100000
  0334 001E 0020  WBIT10  DATA  >0020                 ; Binary 000000000010000
  0335 0020 0010  WBIT11  DATA  >0010                 ; Binary 000000000001000
  0336 0022 0008  WBIT12  DATA  >0008                 ; Binary 000000000000100
  0337 0024 0004  WBIT13  DATA  >0004                 ; Binary 000000000000010
  0338 0026 0002  WBIT14  DATA  >0002                 ; Binary 000000000000001
  0339 0028 0001  WBIT15  DATA  >0001                 ; Binary 000000000000000
  0340 002A FFFF  WHFFFF  DATA  >FFFF                 ; Binary 111111111111111
  0341 002C   00  BD0     BYTE  0                     ; Digit 0
  0342 002D   01  BD1     BYTE  1                     ; Digit 1
  0343 002E   02  BD2     BYTE  2                     ; Digit 2
  0344 002F   03  BD3     BYTE  3                     ; Digit 3
  0345 0030   04  BD4     BYTE  4                     ; Digit 4
  0346 0031   05  BD5     BYTE  5                     ; Digit 5
  0347 0032   06  BD6     BYTE  6                     ; Digit 6
  0348 0033   07  BD7     BYTE  7                     ; Digit 7
  0349 0034   08  BD8     BYTE  8                     ; Digit 8
  0350 0035   09  BD9     BYTE  9                     ; Digit 9
  0351 0036   D0  BD208   BYTE  208                   ; Digit 208 (>D0)
  0352                    EVEN
  0353            *-----------------------------------------------------------
  0354            * Equates for constants

 Xa99 Cross Assembler
VERSION 1.2/A                                                PAGE 0007
  0355            *-----------------------------------------------------------
  0356      0020' ANYKEY  EQU   WBIT11                ; BIT 11 in the CONFIG r
  0357      000A' BBIT0   EQU   WBIT0
  0358      000C' BBIT1   EQU   WBIT1
  0359      000E' BBIT2   EQU   WBIT2
  0360      0010' BBIT3   EQU   WBIT3
  0361      0012' BBIT4   EQU   WBIT4
  0362      0014' BBIT5   EQU   WBIT5
  0363      0016' BBIT6   EQU   WBIT6
  0364      0018' BBIT7   EQU   WBIT7
  0365      0021' BH10    EQU   WBIT11+1              ; >10
  0366      001F' BH20    EQU   WBIT10+1              ; >20
  0367      001D' BH40    EQU   WBIT9+1               ; >40
  0368      001B' BH80    EQU   WBIT8+1               ; >80
  0369      0018' WH100   EQU   WBIT7                 ; >0100
  0370      000C' WH4000  EQU   WBIT1                 ; >4000   
  0371            
  0372            
  0373            ************************************************************
  0374            *                    Video mode tables
  0375            ************************************************************
  0376            * Graphics mode 1 (32 columns)
  0377            *-----------------------------------------------------------
  0378 0038   00  GRAPH1  BYTE  >00,>E2,>00,>0E,>01,>06,>02,SPFBCK,0,32
       0039   E2 
       003A   00 
       003B   0E 
       003C   01 
       003D   06 
       003E   02 
       003F   00 
       0040   00 
       0041   20 
*****  UNDEFINED SYMBOL - 0378
  0379            * ; VDP#0 Control bits
  0380            * ;      bit 6=0: M3 | Graphics 1 mode
  0381            * ;      bit 7=0: Disable external VDP input
  0382            * ; VDP#1 Control bits
  0383            * ;      bit 0=1: 16K selection
  0384            * ;      bit 1=1: Enable display
  0385            * ;      bit 2=1: Enable VDP interrupt
  0386            * ;      bit 3=0: M1 \ Graphics 1 mode
  0387            * ;      bit 4=0: M2 /
  0388            * ;      bit 5=0: reserved
  0389            * ;      bit 6=1: 16x16 sprites
  0390            * ;      bit 7=0: Sprite magnification (1x)
  0391            * ; VDP#2 PNT (Pattern name table)       at >0000  (>00 * >4
  0392            * ; VDP#3 PCT (Pattern color table)      at >0380  (>0E * >0
  0393            * ; VDP#4 PDT (Pattern descriptor table) at >0800  (>01 * >8
  0394            * ; VDP#5 SAT (sprite attribute list)    at >0300  (>06 * >0
  0395            * ; VDP#6 SPT (Sprite pattern table)     at >1000  (>02 * >8
  0396            * ; VDP#7 Set screen background color
  0397            ************************************************************
  0398            * Textmode (40 columns)
  0399            *-----------------------------------------------------------
  0400 0042   00  TXTMOD  BYTE  >00,>F2,>00,>0E,>01,>06,>00,SPFCLR,0,40
       0043   F2 
       0044   00 
       0045   0E 

 Xa99 Cross Assembler
VERSION 1.2/A                                                PAGE 0008
       0046   01 
       0047   06 
       0048   00 
       0049   00 
       004A   00 
       004B   28 
*****  UNDEFINED SYMBOL - 0400
  0401            * ; VDP#0 Control bits
  0402            * ;      bit 6=0: M3 | Graphics 1 mode
  0403            * ;      bit 7=0: Disable external VDP input
  0404            * ; VDP#1 Control bits
  0405            * ;      bit 0=1: 16K selection
  0406            * ;      bit 1=1: Enable display
  0407            * ;      bit 2=1: Enable VDP interrupt
  0408            * ;      bit 3=1: M1 \ TEXT MODE
  0409            * ;      bit 4=0: M2 /
  0410            * ;      bit 5=0: reserved
  0411            * ;      bit 6=1: 16x16 sprites
  0412            * ;      bit 7=0: Sprite magnification (1x)
  0413            * ; VDP#2 PNT (Pattern name table)       at >0000  (>00 * >4
  0414            * ; VDP#3 PCT (Pattern color table)      at >0380  (>0E * >0
  0415            * ; VDP#4 PDT (Pattern descriptor table) at >0800  (>01 * >8
  0416            * ; VDP#5 SAT (sprite attribute list)    at >0300  (>06 * >0
  0417            * ; VDP#6 SPT (Sprite pattern table)     at >0000  (>00 * >8
  0418            * ; VDP#7 Set foreground/background color
  0419            ************************************************************
  0420            
  0421            
  0422            ************************************************************
  0423            *                Data used by runtime library
  0424            ********@*****@*********************@***********************
  0425 004C 0956' KDATA   DATA  KERNEL                ; Address of kernel thre
  0426            *-----------------------------------------------------------
  0427            * ; Machine code for tight loop. 
  0428            * ; The MOV operation at MCLOOP must be injected by the call
  0429            *-----------------------------------------------------------
  0430            *       DATA  >????                 ; \ MCLOOP  MOV   ...
  0431 004E 0606  MCCODE  DATA  >0606                 ; |         DEC   R6 (TM
  0432 0050 16FD          DATA  >16FD                 ; |         JNE   MCLOOP
  0433 0052 045B          DATA  >045B                 ; /         B     *R11
  0434            *-----------------------------------------------------------
  0435            * ; Machine code for reading from the speech synthesizer
  0436            * ; The SRC instruction takes 12 uS for execution in scratch
  0437            * ; Is required for the 12 uS delay. It destroys R5.
  0438            *-----------------------------------------------------------
  0439 0054 D114  SPCODE  DATA  >D114                 ; \         MOVB  *R4,R4
  0440 0056 0BC5          DATA  >0BC5                 ; /         SRC   R5,12 
  0441                    EVEN
  0442            *:..
  0443            
  0444                         
  0445            *///////////////////////////////////////////////////////////
  0446            *                     FILL & COPY FUNCTIONS
  0447            *///////////////////////////////////////////////////////////
  0448            
  0449            * FILM   (DATA P0,P1,P2) / XFILM ..:
  0450            ************************************************************
  0451            * FILM - Fill CPU memory with byte
  0452            ************************************************************

 Xa99 Cross Assembler
VERSION 1.2/A                                                PAGE 0009
  0453            *  BL   @FILM
  0454            *  DATA P0,P1,P2
  0455            *-----------------------------------------------------------
  0456            *  P0 = Memory start address
  0457            *  P1 = Byte to fill
  0458            *  P2 = Number of bytes to fill
  0459            *-----------------------------------------------------------
  0460            *  BL   @XFILM
  0461            *
  0462            *  TMP0 = Memory start address
  0463            *  TMP1 = Byte to fill
  0464            *  TMP2 = Number of bytes to fill
  0465            ********@*****@*********************@***********************
  0466 0058 C13B  FILM    MOV   *R11+,TMP0            ; Memory start
  0467 005A C17B          MOV   *R11+,TMP1            ; Byte to fill
  0468 005C C1BB          MOV   *R11+,TMP2            ; Repeat count        
  0469            *-----------------------------------------------------------
  0470            * Fill memory with 16 bit words
  0471            *-----------------------------------------------------------
  0472 005E C1C6  XFILM   MOV   TMP2,TMP3
  0473 0060 0247          ANDI  TMP3,1                ; TMP3=1 -> ODD else EVE
       0062 0001 
  0474 0064 1301          JEQ   FILM1
  0475 0066 0606          DEC   TMP2                  ; Make TMP2 even        
  0476 0068 D820  FILM1   MOVB  @TMP1LB,@TMP1HB       ; Duplicate value    
       006A 830B 
       006C 830A 
  0477 006E CD05  FILM2   MOV   TMP1,*TMP0+
  0478 0070 0646          DECT  TMP2
  0479 0072 16FD          JNE   FILM2
  0480            *-----------------------------------------------------------
  0481            * Fill last byte if ODD
  0482            *-----------------------------------------------------------
  0483 0074 C1C7          MOV   TMP3,TMP3
  0484 0076 1301          JEQ   FILMZ
  0485 0078 D505          MOVB  TMP1,*TMP0
  0486 007A 045B  FILMZ   B     *R11
  0487            * :..
  0488            
  0489            * FILV   (DATA P0,P1,P2) / XFILV ..:
  0490            ************************************************************
  0491            * FILV - Fill VRAM with byte
  0492            ************************************************************
  0493            *  BL   @FILV
  0494            *  DATA P0,P1,P2
  0495            *-----------------------------------------------------------
  0496            *  P0 = VDP start address
  0497            *  P1 = Byte to fill
  0498            *  P2 = Number of bytes to fill
  0499            *-----------------------------------------------------------
  0500            *  BL   @XFILV
  0501            *
  0502            *  TMP0 = VDP start address
  0503            *  TMP1 = Byte to fill
  0504            *  TMP2 = Number of bytes to fill
  0505            ********@*****@*********************@***********************
  0506 007C C13B  FILV    MOV   *R11+,TMP0            ; Memory start
  0507 007E C17B          MOV   *R11+,TMP1            ; Byte to fill
  0508 0080 C1BB          MOV   *R11+,TMP2            ; Repeat count        

 Xa99 Cross Assembler
VERSION 1.2/A                                                PAGE 0010
  0509            *-----------------------------------------------------------
  0510            *    Setup VDP write address
  0511            *-----------------------------------------------------------
  0512 0082 0264  XFILV   ORI   TMP0,>4000
       0084 4000 
  0513 0086 06C4          SWPB  TMP0
  0514 0088 D804          MOVB  TMP0,@VDPA
       008A 8C02 
  0515 008C 06C4          SWPB  TMP0
  0516 008E D804          MOVB  TMP0,@VDPA
       0090 8C02 
  0517            *-----------------------------------------------------------
  0518            *    Fill bytes in VDP memory
  0519            *-----------------------------------------------------------
  0520 0092 020F          LI    R15,VDPW              ; Set VDP write address 
       0094 8C00 
  0521 0096 06C5          SWPB  TMP1
  0522 0098 C820          MOV   @FILZZ,@MCLOOP        ; Setup move command
       009A 00A2'
       009C 8320 
  0523 009E 0460          B     @MCLOOP               ; Write data to VDP
       00A0 8320 
  0524 00A2 D7C5  FILZZ   DATA  >D7C5                 ; MOVB TMP1,*R15
  0525            *:..
  0526            
  0527            * CPYM2M (DATA P0,P1,P2) / XPYM2M ..:
  0528            ************************************************************
  0529            * CPYM2M - Copy CPU memory to CPU memory
  0530            ************************************************************
  0531            *  BL   @CPYM2M
  0532            *  DATA P0,P1,P2
  0533            *-----------------------------------------------------------
  0534            *  P0 = Memory source address
  0535            *  P1 = Memory target address
  0536            *  P2 = Number of bytes to copy
  0537            *-----------------------------------------------------------
  0538            *  BL @XPYM2M
  0539            *
  0540            *  TMP0 = Memory source address
  0541            *  TMP1 = Memory target address
  0542            *  TMP2 = Number of bytes to copy
  0543            ********@*****@*********************@***********************
  0544 00A4 C13B  CPYM2M  MOV   *R11+,TMP0            ; Memory source address
  0545 00A6 C17B          MOV   *R11+,TMP1            ; Memory target address
  0546 00A8 C1BB          MOV   *R11+,TMP2            ; Number of bytes to cop
  0547            *-----------------------------------------------------------
  0548            * Do some checks first
  0549            *-----------------------------------------------------------
  0550 00AA 024C  XPYM2M  ANDI  CONFIG,>7FFF          ; Clear CONFIG bit 0
       00AC 7FFF 
  0551 00AE C1C4          MOV   TMP0,TMP3
  0552 00B0 0247          ANDI  TMP3,1        
       00B2 0001 
  0553 00B4 1618          JNE   CPYODD                ; Odd source address han
  0554 00B6 C1C5  CPYM1   MOV   TMP1,TMP3
  0555 00B8 0247          ANDI  TMP3,1        
       00BA 0001 
  0556 00BC 1614          JNE   CPYODD                ; Odd target address han
  0557            *-----------------------------------------------------------

 Xa99 Cross Assembler
VERSION 1.2/A                                                PAGE 0011
  0558            * 8 bit copy 
  0559            *-----------------------------------------------------------
  0560 00BE 2320  CPYM2   COC   @WBIT0,CONFIG         ; CONFIG bit 0 set ?
       00C0 000A'
  0561 00C2 1605          JNE   CPYM3   
  0562 00C4 C820          MOV   @TMP011,@MCLOOP       ; Setup byte copy comman
       00C6 00EC'
       00C8 8320 
  0563 00CA 0460          B     @MCLOOP               ; Copy memory and exit
       00CC 8320 
  0564            *-----------------------------------------------------------
  0565            * 16 bit copy
  0566            *-----------------------------------------------------------
  0567 00CE C1C6  CPYM3   MOV   TMP2,TMP3
  0568 00D0 0247          ANDI  TMP3,1                ; TMP3=1 -> ODD else EVE
       00D2 0001 
  0569 00D4 1301          JEQ   CPYM4
  0570 00D6 0606          DEC   TMP2                  ; Make TMP2 even        
  0571 00D8 CD74  CPYM4   MOV   *TMP0+,*TMP1+
  0572 00DA 0646          DECT  TMP2
  0573 00DC 16FD          JNE   CPYM4
  0574            *-----------------------------------------------------------
  0575            * Copy last byte if ODD
  0576            *-----------------------------------------------------------
  0577 00DE C1C7          MOV   TMP3,TMP3
  0578 00E0 1301          JEQ   CPYMZ
  0579 00E2 D554          MOVB  *TMP0,*TMP1                
  0580 00E4 045B  CPYMZ   B     *R11
  0581            *-----------------------------------------------------------
  0582            * Handle odd source/target address
  0583            *-----------------------------------------------------------
  0584 00E6 026C  CPYODD  ORI   CONFIG,>8000        ; Set CONFIG bot 0
       00E8 8000 
  0585 00EA 10E9          JMP   CPYM2
  0586 00EC DD74  TMP011  DATA  >DD74               ; MOVB *TMP0+,*TMP1+      
  0587            
  0588                    
  0589            * :.. 
  0590            
  0591            * CPYM2V (DATA P0,P1,P2) / XPYM2V ..:
  0592            ************************************************************
  0593            * CPYM2V - Copy CPU memory to VRAM
  0594            ************************************************************
  0595            *  BL   @CPYM2V
  0596            *  DATA P0,P1,P2
  0597            *-----------------------------------------------------------
  0598            *  P0 = VDP start address
  0599            *  P1 = RAM/ROM start address
  0600            *  P2 = Number of bytes to copy
  0601            *-----------------------------------------------------------
  0602            *  BL @XPYM2V
  0603            *
  0604            *  TMP0 = VDP start address
  0605            *  TMP1 = RAM/ROM start address
  0606            *  TMP2 = Number of bytes to copy
  0607            ********@*****@*********************@***********************
  0608 00EE C13B  CPYM2V  MOV   *R11+,TMP0            ; VDP Start address
  0609 00F0 C17B          MOV   *R11+,TMP1            ; RAM/ROM start address
  0610 00F2 C1BB          MOV   *R11+,TMP2            ; Bytes to copy   

 Xa99 Cross Assembler
VERSION 1.2/A                                                PAGE 0012
  0611            *-----------------------------------------------------------
  0612            *    Setup VDP write address
  0613            *-----------------------------------------------------------
  0614 00F4 0264  XPYM2V  ORI   TMP0,>4000
       00F6 4000 
  0615 00F8 06C4          SWPB  TMP0
  0616 00FA D804          MOVB  TMP0,@VDPA
       00FC 8C02 
  0617 00FE 06C4          SWPB  TMP0
  0618 0100 D804          MOVB  TMP0,@VDPA
       0102 8C02 
  0619            *-----------------------------------------------------------
  0620            *    Copy bytes from CPU memory to VRAM
  0621            *-----------------------------------------------------------
  0622 0104 020F          LI    R15,VDPW              ; Set VDP write address
       0106 8C00 
  0623 0108 C820          MOV   @TMP008,@MCLOOP       ; Setup copy command
       010A 0112'
       010C 8320 
  0624 010E 0460          B     @MCLOOP               ; Write data to VDP
       0110 8320 
  0625 0112 D7F5  TMP008  DATA  >D7F5                 ; MOVB *TMP1+,*R15      
  0626            *:..
  0627            
  0628            * CPYV2M (DATA P0,P1,P2) / XPYV2M ..:
  0629            ************************************************************
  0630            * CPYV2M - Copy VRAM to CPU memory
  0631            ************************************************************
  0632            *  BL   @CPYV2M
  0633            *  DATA P0,P1,P2
  0634            *-----------------------------------------------------------
  0635            *  P0 = VDP source address
  0636            *  P1 = RAM target address
  0637            *  P2 = Number of bytes to copy
  0638            *-----------------------------------------------------------
  0639            *  BL @XPYV2M
  0640            *
  0641            *  TMP0 = VDP source address
  0642            *  TMP1 = RAM target address
  0643            *  TMP2 = Number of bytes to copy
  0644            ********@*****@*********************@***********************
  0645 0114 C13B  CPYV2M  MOV   *R11+,TMP0            ; VDP source address
  0646 0116 C17B          MOV   *R11+,TMP1            ; Target address in RAM
  0647 0118 C1BB          MOV   *R11+,TMP2            ; Bytes to copy
  0648            *-----------------------------------------------------------
  0649            *    Setup VDP read address
  0650            *-----------------------------------------------------------
  0651 011A 06C4  XPYV2M  SWPB  TMP0
  0652 011C D804          MOVB  TMP0,@VDPA
       011E 8C02 
  0653 0120 06C4          SWPB  TMP0
  0654 0122 D804          MOVB  TMP0,@VDPA
       0124 8C02 
  0655            *-----------------------------------------------------------
  0656            *    Copy bytes from VDP memory to RAM
  0657            *-----------------------------------------------------------
  0658 0126 020F          LI    R15,VDPR              ; Set VDP read address
       0128 8800 
  0659 012A C820          MOV   @TMP007,@MCLOOP       ; Setup copy command

 Xa99 Cross Assembler
VERSION 1.2/A                                                PAGE 0013
       012C 0134'
       012E 8320 
  0660 0130 0460          B     @MCLOOP               ; Read data from VDP
       0132 8320 
  0661 0134 DD5F  TMP007  DATA  >DD5F                 ; MOVB *R15,*TMP+       
  0662            *:..
  0663            
  0664            * CPYG2M (DATA P0,P1,P2) / XPYG2M ..:
  0665            ************************************************************
  0666            * CPYG2M - Copy GROM memory to CPU memory
  0667            ************************************************************
  0668            *  BL   @CPYG2M
  0669            *  DATA P0,P1,P2
  0670            *-----------------------------------------------------------
  0671            *  P0 = GROM source address
  0672            *  P1 = CPU target address
  0673            *  P2 = Number of bytes to copy
  0674            *-----------------------------------------------------------
  0675            *  BL @CPYG2M
  0676            *
  0677            *  TMP0 = GROM source address
  0678            *  TMP1 = CPU target address
  0679            *  TMP2 = Number of bytes to copy
  0680            ********@*****@*********************@***********************
  0681 0136 C13B  CPYG2M  MOV   *R11+,TMP0            ; Memory source address
  0682 0138 C17B          MOV   *R11+,TMP1            ; Memory target address
  0683 013A C1BB          MOV   *R11+,TMP2            ; Number of bytes to cop
  0684            *-----------------------------------------------------------
  0685            * Setup GROM source address
  0686            *-----------------------------------------------------------
  0687 013C D804  XPYG2M  MOVB  TMP0,@GRMWA
       013E 9C02 
  0688 0140 06C4          SWPB  TMP0
  0689 0142 D804          MOVB  TMP0,@GRMWA                  
       0144 9C02 
  0690            *-----------------------------------------------------------
  0691            *    Copy bytes from GROM to CPU memory
  0692            *-----------------------------------------------------------
  0693 0146 0204          LI    TMP0,GRMRD            ; Set TMP0 to GROM data 
       0148 9800 
  0694 014A C820          MOV   @TMP003,@MCLOOP       ; Setup copy command
       014C 0154'
       014E 8320 
  0695 0150 0460          B     @MCLOOP               ; Copy bytes
       0152 8320 
  0696 0154 DD54  TMP003  DATA  >DD54                 ; MOVB *TMP0,*TMP1+
  0697            *:..        
  0698                              
  0699            * CPYG2V (DATA P0,P1,P2) / XPYG2V ..:
  0700            ************************************************************
  0701            * CPYG2V - Copy GROM memory to VRAM memory
  0702            ************************************************************
  0703            *  BL   @CPYG2V
  0704            *  DATA P0,P1,P2
  0705            *-----------------------------------------------------------
  0706            *  P0 = GROM source address
  0707            *  P1 = VDP target address
  0708            *  P2 = Number of bytes to copy
  0709            *-----------------------------------------------------------

 Xa99 Cross Assembler
VERSION 1.2/A                                                PAGE 0014
  0710            *  BL @CPYG2V
  0711            *
  0712            *  TMP0 = GROM source address
  0713            *  TMP1 = VDP target address
  0714            *  TMP2 = Number of bytes to copy
  0715            ********@*****@*********************@***********************
  0716 0156 C13B  CPYG2V  MOV   *R11+,TMP0            ; Memory source address
  0717 0158 C17B          MOV   *R11+,TMP1            ; Memory target address
  0718 015A C1BB          MOV   *R11+,TMP2            ; Number of bytes to cop
  0719            *-----------------------------------------------------------
  0720            * Setup GROM source address
  0721            *-----------------------------------------------------------
  0722 015C D804  XPYG2V  MOVB  TMP0,@GRMWA
       015E 9C02 
  0723 0160 06C4          SWPB  TMP0
  0724 0162 D804          MOVB  TMP0,@GRMWA                  
       0164 9C02 
  0725            *-----------------------------------------------------------
  0726            * Setup VDP target address
  0727            *-----------------------------------------------------------
  0728 0166 0265          ORI   TMP1,>4000
       0168 4000 
  0729 016A 06C5          SWPB  TMP1
  0730 016C D805          MOVB  TMP1,@VDPA
       016E 8C02 
  0731 0170 06C5          SWPB  TMP1
  0732 0172 D805          MOVB  TMP1,@VDPA            ; Set VDP target address
       0174 8C02 
  0733            *-----------------------------------------------------------
  0734            *    Copy bytes from GROM to VDP memory
  0735            *-----------------------------------------------------------
  0736 0176 0207          LI    TMP3,GRMRD            ; Set TMP3 to GROM data 
       0178 9800 
  0737 017A 020F          LI    R15,VDPW              ; Set VDP write address
       017C 8C00 
  0738 017E C820          MOV   @TMP002,@MCLOOP       ; Setup copy command
       0180 0188'
       0182 8320 
  0739 0184 0460          B     @MCLOOP               ; Copy bytes
       0186 8320 
  0740 0188 D7D7  TMP002  DATA  >D7D7                 ; MOVB *TMP3,*R15       
  0741            *:..
  0742            
  0743            * RLE2M
  0744            * STILL TO DO
  0745            
  0746            * RLE2V (DATA P0,P1,P2) ..:
  0747            ************************************************************
  0748            * RLE2V - RLE decompress to VRAM memory
  0749            ************************************************************
  0750            *  BL   @RLE2V
  0751            *  DATA P0,P1,P2
  0752            *-----------------------------------------------------------
  0753            *  P0 = ROM/RAM source address 
  0754            *  P1 = VDP target address
  0755            *  P2 = Length of RLE encoded data
  0756            *-----------------------------------------------------------
  0757            *  BL @RLE2VX
  0758            *

 Xa99 Cross Assembler
VERSION 1.2/A                                                PAGE 0015
  0759            *  TMP0     = VDP target address
  0760            *  TMP2 (!) = ROM/RAM source address 
  0761            *  TMP3 (!) = Length of RLE encoded data
  0762            *-----------------------------------------------------------
  0763            *  Detail on RLE compression format:
  0764            *  - If high bit is set, remaining 7 bits indicate to copy 
  0765            *    the next byte that many times.
  0766            *  - If high bit is clear, remaining 7 bits indicate how man
  0767            *    data bytes (non-repeated) follow.
  0768            ********@*****@*********************@***********************
  0769 018A C1BB  RLE2V   MOV   *R11+,TMP2            ; ROM/RAM source address
  0770 018C C13B          MOV   *R11+,TMP0            ; VDP target address
  0771 018E C1FB          MOV   *R11+,TMP3            ; Length of RLE encoded 
  0772 0190 C80B          MOV   R11,@WAUX1            ; Save return address
       0192 833C 
  0773 0194 06A0  RLE2VX  BL    @VDWA                 ; Setup VDP address from
       0196 01D0'
  0774 0198 C106          MOV   TMP2,TMP0             ; We can safely reuse TM
  0775 019A D1B4  RLE2V0  MOVB  *TMP0+,TMP2           ; Get control byte into 
  0776 019C 0607          DEC   TMP3                  ; Update length
  0777 019E 1314          JEQ   RLE2VZ                ; End of list
  0778 01A0 0A16          SLA   TMP2,1                ; Check bit 0 of control
  0779 01A2 1808          JOC   RLE2V2                ; Yes, next byte is comp
  0780            *-----------------------------------------------------------
  0781            *    Dump uncompressed bytes
  0782            *-----------------------------------------------------------
  0783 01A4 C820  RLE2V1  MOV   @RLEDAT,@MCLOOP       ; Setup machine code (MO
       01A6 01CE'
       01A8 8320 
  0784 01AA 0996          SRL   TMP2,9                ; Use control byte as co
  0785 01AC 61C6          S     TMP2,TMP3             ; Update length        
  0786 01AE 06A0          BL    @MCLOOP               ; Write data to VDP
       01B0 8320 
  0787 01B2 1008          JMP   RLE2V3                
  0788            *-----------------------------------------------------------
  0789            *    Dump compressed bytes
  0790            *-----------------------------------------------------------
  0791 01B4 C820  RLE2V2  MOV   @FILZZ,@MCLOOP        ; Setup machine code(MOV
       01B6 00A2'
       01B8 8320 
  0792 01BA 0996          SRL   TMP2,9                ; Use control byte as co
  0793 01BC 0607          DEC   TMP3                  ; Update length        
  0794 01BE D174          MOVB  *TMP0+,TMP1           ; Byte to fill
  0795 01C0 06A0          BL    @MCLOOP               ; Write data to VDP
       01C2 8320 
  0796            *-----------------------------------------------------------
  0797            *    Check if more data to decompress
  0798            *-----------------------------------------------------------
  0799 01C4 C1C7  RLE2V3  MOV   TMP3,TMP3             ; Length counter = 0 ?
  0800 01C6 16E9          JNE   RLE2V0                ; Not yet, process data
  0801            *-----------------------------------------------------------
  0802            *    Exit
  0803            *-----------------------------------------------------------
  0804 01C8 C2E0  RLE2VZ  MOV   @WAUX1,R11
       01CA 833C 
  0805 01CC 045B          B     *R11                  ; Return
  0806 01CE D7F4  RLEDAT  DATA  >D7F4                 ; MOVB *TMP0+,*R15
  0807            * :..        
  0808                    

 Xa99 Cross Assembler
VERSION 1.2/A                                                PAGE 0016
  0809                    
  0810                    
  0811            
  0812            
  0813            
  0814            *///////////////////////////////////////////////////////////
  0815            *                      VDP LOW LEVEL FUNCTIONS
  0816            *///////////////////////////////////////////////////////////
  0817            
  0818            * VDWA   () / VDRA () ..:
  0819            ************************************************************
  0820            * VDWA / VDRA - Setup VDP write or read address
  0821            ************************************************************
  0822            *  BL   @VDWA
  0823            *
  0824            *  TMP0 = VDP destination address for write
  0825            *-----------------------------------------------------------
  0826            *  BL   @VDRA
  0827            *
  0828            *  TMP0 = VDP source address for read
  0829            ********@*****@*********************@***********************
  0830 01D0 0264  VDWA    ORI   TMP0,>4000            ; Prepare VDP address fo
       01D2 4000 
  0831 01D4 06C4  VDRA    SWPB  TMP0
  0832 01D6 D804          MOVB  TMP0,@VDPA
       01D8 8C02 
  0833 01DA 06C4          SWPB  TMP0
  0834 01DC D804          MOVB  TMP0,@VDPA            ; Set VDP address
       01DE 8C02 
  0835 01E0 045B          B     *R11
  0836            * :..
  0837            
  0838            * VPUTB  (DATA P0, P1) / XVPUTB ..:
  0839            ************************************************************
  0840            * VPUTB - VDP put single byte
  0841            ************************************************************
  0842            *  BL @VPUTB
  0843            *  DATA P0,P1
  0844            *-----------------------------------------------------------
  0845            *  P0 = VDP target address
  0846            *  P1 = Byte to write
  0847            ********@*****@*********************@***********************
  0848 01E2 C13B  VPUTB   MOV   *R11+,TMP0            ; Get VDP target address
  0849 01E4 C17B          MOV   *R11+,TMP1
  0850 01E6 C18B  XVPUTB  MOV   R11,TMP2              ; Save R11
  0851 01E8 06A0          BL    @VDWA                 ; Set VDP write address
       01EA 01D0'
  0852 01EC 06C5          SWPB  TMP1                  ; Get byte to write
  0853 01EE D7C5          MOVB  TMP1,*R15             ; Write byte
  0854 01F0 0456          B     *TMP2                 ; Exit
  0855            *:..        
  0856            
  0857            * VGETB  (DATA P0) / XVGETB ..:
  0858            ************************************************************
  0859            * VGETB - VDP get single byte
  0860            ************************************************************
  0861            *  BL @VGETB
  0862            *  DATA P0
  0863            *-----------------------------------------------------------

 Xa99 Cross Assembler
VERSION 1.2/A                                                PAGE 0017
  0864            *  P0 = VDP source address
  0865            ********@*****@*********************@***********************
  0866 01F2 C13B  VGETB   MOV   *R11+,TMP0            ; Get VDP source address
  0867 01F4 C18B  XVGETB  MOV   R11,TMP2              ; Save R11
  0868 01F6 06A0          BL    @VDRA                 ; Set VDP read address
       01F8 01D4'
  0869 01FA D120          MOVB  @VDPR,TMP0            ; Read byte
       01FC 8800 
  0870 01FE 0984          SRL   TMP0,8                ; Right align
  0871 0200 0456          B     *TMP2                 ; Exit
  0872            *:..
  0873                    
  0874            * VIDTAB (DATA P0) / XIDTAB ..:
  0875            ************************************************************
  0876            * VIDTAB - Dump videomode table
  0877            ************************************************************
  0878            *  BL   @VIDTAB
  0879            *  DATA P0
  0880            *-----------------------------------------------------------
  0881            *  P0 = Address of video mode table
  0882            *-----------------------------------------------------------
  0883            *  BL   @XIDTAB
  0884            *
  0885            *  TMP0 = Address of video mode table
  0886            *-----------------------------------------------------------
  0887            *  Remarks
  0888            *  TMP1 = MSB is the VDP target register
  0889            *         LSB is the value to write
  0890            ********@*****@*********************@***********************
  0891 0202 C13B  VIDTAB  MOV   *R11+,TMP0            ; Get video mode table
  0892 0204 C394  XIDTAB  MOV   *TMP0,R14             ; Store copy of VDP#0 an
  0893            *-----------------------------------------------------------
  0894            * Calculate PNT base address
  0895            *-----------------------------------------------------------
  0896 0206 C144          MOV   TMP0,TMP1
  0897 0208 05C5          INCT  TMP1
  0898 020A D155          MOVB  *TMP1,TMP1            ; Get value for VDP#2
  0899 020C 0245          ANDI  TMP1,>FF00            ; Only keep MSB
       020E FF00 
  0900 0210 0A25          SLA   TMP1,2                ; TMP1 *= 400
  0901 0212 C805          MOV   TMP1,@WBASE           ; Store calculated base
       0214 8328 
  0902            *-----------------------------------------------------------
  0903            * Dump VDP shadow registers
  0904            *-----------------------------------------------------------
  0905 0216 0205          LI    TMP1,>8000            ; Start with VDP registe
       0218 8000 
  0906 021A 0206          LI    TMP2,8
       021C 0008 
  0907 021E D834  VIDTA1  MOVB  *TMP0+,@TMP1LB        ; Write value to VDP reg
       0220 830B 
  0908 0222 06C5          SWPB  TMP1        
  0909 0224 D805          MOVB  TMP1,@VDPA        
       0226 8C02 
  0910 0228 06C5          SWPB  TMP1
  0911 022A D805          MOVB  TMP1,@VDPA
       022C 8C02 
  0912 022E 0225          AI    TMP1,>0100
       0230 0100 

 Xa99 Cross Assembler
VERSION 1.2/A                                                PAGE 0018
  0913 0232 0606          DEC   TMP2
  0914 0234 16F4          JNE   VIDTA1                ; Next register
  0915 0236 C814          MOV   *TMP0,@WCOLMN         ; Store # of columns per
       0238 833A 
  0916 023A 045B          B     *R11
  0917            *:..
  0918            
  0919            * PUTVR  (DATA P0) / PUTVRX ..:
  0920            ************************************************************
  0921            * PUTVR  - Put single VDP register
  0922            ************************************************************
  0923            *  BL   @PUTVR
  0924            *  DATA P0
  0925            *-----------------------------------------------------------
  0926            *  P0 = MSB is the VDP target register
  0927            *       LSB is the value to write
  0928            *-----------------------------------------------------------
  0929            *  BL   @PUTVRX
  0930            *
  0931            *  TMP0 = MSB is the VDP target register
  0932            *         LSB is the value to write
  0933            ********@*****@*********************@***********************
  0934 023C C13B  PUTVR   MOV   *R11+,TMP0
  0935 023E 0264  PUTVRX  ORI   TMP0,>8000
       0240 8000 
  0936 0242 06C4          SWPB  TMP0        
  0937 0244 D804          MOVB  TMP0,@VDPA        
       0246 8C02 
  0938 0248 06C4          SWPB  TMP0
  0939 024A D804          MOVB  TMP0,@VDPA
       024C 8C02 
  0940 024E 045B          B     *R11
  0941            *:..
  0942            
  0943            * PUTV01 () ..:
  0944            ************************************************************
  0945            * PUTV01  - Put VDP registers #0 and #1
  0946            ************************************************************
  0947            *  BL   @PUTV01
  0948            ********@*****@*********************@***********************
  0949 0250 C20B  PUTV01  MOV   R11,TMP4              ; Save R11
  0950 0252 C10E          MOV   R14,TMP0
  0951 0254 0984          SRL   TMP0,8
  0952 0256 06A0          BL    @PUTVRX               ; Write VR#0
       0258 023E'
  0953 025A 0204          LI    TMP0,>0100
       025C 0100 
  0954 025E D820          MOVB  @R14LB,@TMP0LB
       0260 831D 
       0262 8309 
  0955 0264 06A0          BL    @PUTVRX               ; Write VR#1
       0266 023E'
  0956 0268 0458          B     *TMP4                 ; Exit
  0957            * :..        
  0958            
  0959            * SCROFF () ..:
  0960            ************************************************************
  0961            * SCROFF - Disable screen display
  0962            ************************************************************

 Xa99 Cross Assembler
VERSION 1.2/A                                                PAGE 0019
  0963            *  BL @SCROFF
  0964            ********@*****@*********************@***********************
  0965 026A 43A0  SCROFF  SZC   @WBIT9,R14            ; VDP#R1 bit 1=0 (Disabl
       026C 001C'
  0966 026E 10F0          JMP   PUTV01
  0967            *:..
  0968            
  0969            * SCRON  () ..:
  0970            ************************************************************
  0971            * SCRON - Disable screen display
  0972            ************************************************************
  0973            *  BL @SCRON
  0974            ********@*****@*********************@***********************
  0975 0270 E3A0  SCRON   SOC   @WBIT9,R14            ; VDP#R1 bit 1=1 (Enable
       0272 001C'
  0976 0274 10ED          JMP   PUTV01
  0977            *:..
  0978            
  0979            * INTOFF () ..:
  0980            ************************************************************
  0981            * INTOFF - Disable VDP interrupt
  0982            ************************************************************
  0983            *  BL @INTOFF
  0984            ********@*****@*********************@***********************
  0985 0276 43A0  INTOFF  SZC   @WBIT10,R14           ; VDP#R1 bit 2=0 (Disabl
       0278 001E'
  0986 027A 10EA          JMP   PUTV01
  0987            *:..
  0988            
  0989            * INTON  () ..:
  0990            ************************************************************
  0991            * INTON - Enable VDP interrupt
  0992            ************************************************************
  0993            *  BL @INTON
  0994            ********@*****@*********************@***********************
  0995 027C E3A0  INTON   SOC   @WBIT10,R14           ; VDP#R1 bit 2=1 (Enable
       027E 001E'
  0996 0280 10E7          JMP   PUTV01
  0997            *:..
  0998                    
  0999            * SMAG1X () ..:
  1000            ************************************************************
  1001            * SMAG1X - Set sprite magnification 1x
  1002            ************************************************************
  1003            *  BL @SMAG1X
  1004            ********@*****@*********************@***********************
  1005 0282 43A0  SMAG1X  SZC   @WBIT14,R14           ; VDP#R1 bit 7=0 (Sprite
       0284 0026'
  1006 0286 10E4          JMP   PUTV01
  1007            *:..
  1008            
  1009            * SMAG2X () ..:
  1010            ************************************************************
  1011            * SMAG2X - Set sprite magnification 2x
  1012            ************************************************************
  1013            *  BL @SMAG2X
  1014            ********@*****@*********************@***********************
  1015 0288 43A0  SMAG2X  SZC   @WBIT14,R14           ; VDP#R1 bit 7=1 (Sprite
       028A 0026'

 Xa99 Cross Assembler
VERSION 1.2/A                                                PAGE 0020
  1016 028C 10E1          JMP   PUTV01
  1017            *:..
  1018            
  1019            * S8X8   () ..:
  1020            ************************************************************
  1021            * S8X8 - Set sprite size 8x8 bits
  1022            ************************************************************
  1023            *  BL @S8X8
  1024            ********@*****@*********************@***********************
  1025 028E 43A0  S8X8    SZC   @WBIT12,R14           ; VDP#R1 bit 6=0 (Sprite
       0290 0022'
  1026 0292 10DE          JMP   PUTV01
  1027            *:..
  1028            
  1029            * S16X16 () ..:
  1030            ************************************************************
  1031            * S16X16 - Set sprite size 16x16 bits
  1032            ************************************************************
  1033            *  BL @S16X16
  1034            ********@*****@*********************@***********************
  1035 0294 E3A0  S16X16  SOC   @WBIT12,R14           ; VDP#R1 bit 6=1 (Sprite
       0296 0022'
  1036 0298 10DB          JMP   PUTV01
  1037            *:..  
  1038                    
  1039            * YX2PNT (@YX) ..:
  1040            ************************************************************
  1041            * YX2PNT - Get VDP PNT address for current YX cursor positio
  1042            ************************************************************
  1043            *  BL   @YX2PNT
  1044            *-----------------------------------------------------------
  1045            *  INPUT
  1046            *  @WYX = Cursor YX position
  1047            *-----------------------------------------------------------
  1048            *  OUTPUT
  1049            *  TMP0 = VDP address for entry in Pattern Name Table
  1050            *-----------------------------------------------------------
  1051            *  Register usage
  1052            *  TMP0, R14, R15
  1053            ********@*****@*********************@***********************
  1054 029A C10E  YX2PNT  MOV   R14,TMP0              ; Save VDP#0 & VDP#1
  1055 029C C3A0          MOV   @WYX,R14              ; Get Y
       029E 832A 
  1056 02A0 098E          SRL   R14,8                 ; Right justify
  1057 02A2 3BA0          MPY   @WCOLMN,R14           ; pos = Y * (columns per
       02A4 833A 
  1058            *-----------------------------------------------------------
  1059            * Do rest of calculation with R15
  1060            *-----------------------------------------------------------
  1061 02A6 B820          AB    @BX,@R15LB            ; pos = pos + X
       02A8 832B 
       02AA 831F 
  1062 02AC A3E0          A     @WBASE,R15            ; pos = pos + (PNT base 
       02AE 8328 
  1063            *-----------------------------------------------------------
  1064            * Clean up before exit
  1065            *-----------------------------------------------------------
  1066 02B0 C384          MOV   TMP0,R14              ; Restore VDP#0 & VDP#1
  1067 02B2 C10F          MOV   R15,TMP0              ; Return pos in TMP0

 Xa99 Cross Assembler
VERSION 1.2/A                                                PAGE 0021
  1068 02B4 020F          LI    R15,VDPW              ; Set VDP write address
       02B6 8C00 
  1069 02B8 045B          B     *R11
  1070            * :..
  1071                    
  1072            * YX2PX  (@YX) / YX2PXX ..:
  1073            ************************************************************
  1074            * YX2PX - Get pixel position for cursor YX position
  1075            ************************************************************
  1076            *  BL   @YX2PX
  1077            *
  1078            *  (CONFIG:0 = 1) = Skip sprite adjustment
  1079            *-----------------------------------------------------------
  1080            *  INPUT
  1081            *  @WYX   = Cursor YX position
  1082            *-----------------------------------------------------------
  1083            *  OUTPUT
  1084            *  TMP0HB = Y pixel position
  1085            *  TMP0LB = X pixel position
  1086            *-----------------------------------------------------------
  1087            *  Remarks
  1088            *  This subroutine does not support multicolor or text mode
  1089            ********@*****@*********************@***********************
  1090 02BA C120  YX2PX   MOV   @WYX,TMP0
       02BC 832A 
  1091 02BE C18B  YX2PXX  MOV   R11,TMP2              ; Save return address   
  1092 02C0 06C4          SWPB  TMP0                  ; Y<->X
  1093 02C2 04C5          CLR   TMP1                  ; Clear before copy
  1094 02C4 D144          MOVB  TMP0,TMP1             ; Copy X to TMP1
  1095 02C6 0A35          SLA   TMP1,3                ; X=X*8        
  1096 02C8 0A34          SLA   TMP0,3                ; Y=Y*8
  1097 02CA D105          MOVB  TMP1,TMP0
  1098 02CC 06C4          SWPB  TMP0                  ; X<->Y        
  1099 02CE 2320  YX2PI1  COC   @WBIT0,CONFIG         ; Skip sprite adjustment
       02D0 000A'
  1100 02D2 1305          JEQ   YX2PI3                ; Yes, exit
  1101            *-----------------------------------------------------------
  1102            * Adjust for Y sprite location
  1103            * See VDP Programmers Guide, Section 9.2.1
  1104            *-----------------------------------------------------------
  1105 02D4 7120  YX2PI2  SB    @BD1,TMP0             ; Adjust Y. Top of scree
       02D6 002D'
  1106 02D8 9120          CB    @BD208,TMP0           ; Y position = >D0 ?
       02DA 0036'
  1107 02DC 13FB          JEQ   YX2PI2                ; Yes, but that's not al
  1108 02DE 0456  YX2PI3  B     *TMP2                 ; Exit
  1109 02E0 2000  BDIG32  DATA  >2000
  1110            * :..
  1111            
  1112            * PX2YX  () ..:
  1113            ************************************************************
  1114            * PX2YX - Get YX tile position for specified YX pixel positi
  1115            ************************************************************
  1116            *  BL   @PX2YX
  1117            *-----------------------------------------------------------
  1118            *  INPUT
  1119            *  TMP0   = Pixel YX position
  1120            *
  1121            *  (CONFIG:0 = 1) = Skip sprite adjustment

 Xa99 Cross Assembler
VERSION 1.2/A                                                PAGE 0022
  1122            *-----------------------------------------------------------
  1123            *  OUTPUT
  1124            *  TMP0HB = Y tile position
  1125            *  TMP0LB = X tile position
  1126            *  TMP1HB = Y pixel offset
  1127            *  TMP1LB = X pixel offset
  1128            *-----------------------------------------------------------
  1129            *  Remarks
  1130            *  This subroutine does not support multicolor or text mode
  1131            ********@*****@*********************@***********************
  1132 02E2 2320  PX2YX   COC   @WBIT0,CONFIG         ; Skip sprite adjustment
       02E4 000A'
  1133 02E6 1302          JEQ   PX2YX1
  1134 02E8 0224          AI    TMP0,>0100            ; Adjust Y. Top of scree
       02EA 0100 
  1135 02EC C144  PX2YX1  MOV   TMP0,TMP1             ; Copy YX
  1136 02EE C184          MOV   TMP0,TMP2             ; Copy YX
  1137            *-----------------------------------------------------------
  1138            * Calculate Y tile position 
  1139            *-----------------------------------------------------------
  1140 02F0 09B4          SRL   TMP0,11               ; Y: Move to TMP0LB & (Y
  1141            *-----------------------------------------------------------
  1142            * Calculate Y pixel offset
  1143            *-----------------------------------------------------------
  1144 02F2 C1C4          MOV   TMP0,TMP3             ; Y: Copy Y tile to TMP3
  1145 02F4 0AB7          SLA   TMP3,11               ; Y: Move to TMP3HB & (Y
  1146 02F6 0507          NEG   TMP3
  1147 02F8 B1C5          AB    TMP1,TMP3             ; Y: offset = Y pixel ol
  1148            *-----------------------------------------------------------
  1149            * Calculate X tile position
  1150            *-----------------------------------------------------------
  1151 02FA 0245          ANDI  TMP1,>00FF            ; Clear TMP1HB
       02FC 00FF 
  1152 02FE 0A55          SLA   TMP1,5                ; X: Move to TMP1HB & (X
  1153 0300 D105          MOVB  TMP1,TMP0             ; X: TMP0 <-- XY tile po
  1154 0302 06C4          SWPB  TMP0                  ; XY tile position <-> Y
  1155            *-----------------------------------------------------------
  1156            * Calculate X pixel offset
  1157            *-----------------------------------------------------------
  1158 0304 0245          ANDI  TMP1,>FF00            ; X: Get rid of remainin
       0306 FF00 
  1159 0308 0A35          SLA   TMP1,3                ; X: (X = X * 8)
  1160 030A 0505          NEG   TMP1
  1161 030C 06C6          SWPB  TMP2                  ; YX <-> XY             
  1162 030E B146          AB    TMP2,TMP1             ; offset X = X pixel old
  1163 0310 06C5          SWPB  TMP1                  ; X0 <-> 0X
  1164 0312 D147          MOVB  TMP3,TMP1             ; 0X --> YX
  1165 0314 045B          B     *R11                  ; Exit
  1166            * :..
  1167            
  1168            * SCRDIM (DATA P0,P1) ..:
  1169            ************************************************************
  1170            * SCRDIM - Set (virtual) screen base and dimension
  1171            ************************************************************
  1172            *  BL   @SCRDIM
  1173            *-----------------------------------------------------------
  1174            *  INPUT
  1175            *  P0 = PNT base address
  1176            *  P1 = Number of columns per row

 Xa99 Cross Assembler
VERSION 1.2/A                                                PAGE 0023
  1177            ********@*****@*********************@***********************
  1178 0316 C83B  SCRDIM  MOV   *R11+,@WBASE          ; VDP destination addres
       0318 8328 
  1179 031A C83B          MOV   *R11+,@WCOLMN         ; Number of columns per 
       031C 833A 
  1180 031E 045B          B     *R11                  ; Exit
  1181            * :..
  1182            
  1183            * BITMAP () ..:
  1184            ************************************************************
  1185            * BITMAP - Set tiles for displaying bitmap picture
  1186            ************************************************************
  1187            *  BL   @BITMAP
  1188            ********@*****@*********************@***********************
  1189 0320 C1CB  BITMAP  MOV   R11,TMP3              ; Save R11
  1190 0322 C120          MOV   @WBASE,TMP0           ; Get PNT base address
       0324 8328 
  1191 0326 06A0          BL    @VDWA                 ; Setup VDP write addres
       0328 01D0'
  1192 032A 04C5          CLR   TMP1
  1193 032C 0206          LI    TMP2,768              ; Write 768 bytes
       032E 0300 
  1194            *-----------------------------------------------------------
  1195            * Repeat 3 times: write bytes >00 .. >FF 
  1196            *-----------------------------------------------------------
  1197 0330 D7C5  BITMA1  MOVB  TMP1,*R15             ; Write byte 
  1198 0332 0225          AI    TMP1,>0100
       0334 0100 
  1199 0336 0606          DEC   TMP2
  1200 0338 16FB          JNE   BITMA1
  1201 033A 0457          B     *TMP3                 ; Exit
  1202                    
  1203            *///////////////////////////////////////////////////////////
  1204            *                      VDP TILE FUNCTIONS
  1205            *///////////////////////////////////////////////////////////
  1206            
  1207            * LDFNT  (DATA P0,P1) ..:
  1208            ************************************************************
  1209            *  - Load TI-99/4A font from GROM into VDP
  1210            ************************************************************
  1211            *  BL   @LDFNT
  1212            *  DATA P0,P1
  1213            *-----------------------------------------------------------
  1214            *  P0 = VDP Target address
  1215            *  P1 = Font options
  1216            ********@*****@*********************@***********************
  1217 033C C20B  LDFNT   MOV   R11,TMP4              ; Save R11
  1218 033E 05CB          INCT  R11                   ; Get 2nd parameter (fon
  1219 0340 C11B          MOV   *R11,TMP0             ; Get parameter value
  1220 0342 024C          ANDI  CONFIG,>7FFF          ; CONFIG register bit 0=
       0344 7FFF 
  1221 0346 2120          COC   @WBIT0,TMP0
       0348 000A'
  1222 034A 1604          JNE   LDFNT1
  1223 034C 026C          ORI   CONFIG,>8000          ; CONFIG register bit 0=
       034E 8000 
  1224 0350 0244          ANDI  TMP0,>7FFF            ; Parameter value bit 0=
       0352 7FFF 
  1225 0354 C124  LDFNT1  MOV   @TMP006(TMP0),TMP0    ; Load GROM index addres

 Xa99 Cross Assembler
VERSION 1.2/A                                                PAGE 0024
       0356 03B4'
  1226 0358 0205          LI    TMP1,TMP3HB           ; ... into register TMP3
       035A 830E 
  1227 035C 0206          LI    TMP2,2
       035E 0002 
  1228 0360 06A0          BL    @XPYG2M               ; Get font table address
       0362 013C'
  1229            *-----------------------------------------------------------
  1230            * Setup GROM source and VDP target address
  1231            *-----------------------------------------------------------
  1232 0364 D807          MOVB  TMP3,@GRMWA
       0366 9C02 
  1233 0368 06C7          SWPB  TMP3
  1234 036A D807          MOVB  TMP3,@GRMWA           ; Setup GROM address for
       036C 9C02 
  1235 036E C118          MOV   *TMP4,TMP0            ; Get 1st parameter (VDP
  1236 0370 06A0          BL    @VDWA                 ; Setup VDP destination 
       0372 01D0'
  1237 0374 05C8          INCT  TMP4                  ; R11=R11+2
  1238 0376 C158          MOV   *TMP4,TMP1            ; Get font options into 
  1239 0378 0245          ANDI  TMP1,>7FFF            ; Parameter value bit 0=
       037A 7FFF 
  1240 037C C1A5          MOV   @TMP006+2(TMP1),TMP2  ; Get number of patterns
       037E 03B6'
  1241 0380 C165          MOV   @TMP006+4(TMP1),TMP1  ; 7 or 8 byte pattern ?
       0382 03B8'
  1242            *-----------------------------------------------------------
  1243            * Copy from GROM to VRAM
  1244            *-----------------------------------------------------------
  1245 0384 0B15  LDFNT2  SRC   TMP1,1                ; Carry set ?
  1246 0386 1812          JOC   LDFNT4                ; Yes, go insert a >00
  1247 0388 D120          MOVB  @GRMRD,TMP0
       038A 9800 
  1248            *-----------------------------------------------------------
  1249            *   Make font fat
  1250            *-----------------------------------------------------------
  1251 038C 2320          COC   @WBIT0,CONFIG         ; Fat flag set ?
       038E 000A'
  1252 0390 1603          JNE   LDFNT3                ; No, so skip         
  1253 0392 D3C4          MOVB  TMP0,TMP6
  1254 0394 091F          SRL   TMP6,1
  1255 0396 E10F          SOC   TMP6,TMP0                  
  1256            *-----------------------------------------------------------
  1257            *   Dump byte to VDP and do housekeeping
  1258            *-----------------------------------------------------------
  1259 0398 D804  LDFNT3  MOVB  TMP0,@VDPW            ; Dump byte to VRAM
       039A 8C00 
  1260 039C 0606          DEC   TMP2
  1261 039E 16F2          JNE   LDFNT2
  1262 03A0 05C8          INCT  TMP4                  ; R11=R11+2
  1263 03A2 020F          LI    R15,VDPW              ; Set VDP write address
       03A4 8C00 
  1264 03A6 024C          ANDI  CONFIG,>7FFF          ; CONFIG register bit 0=
       03A8 7FFF 
  1265 03AA 0458          B     *TMP4                 ; Exit
  1266 03AC D820  LDFNT4  MOVB  @BD0,@VDPW            ; Insert byte >00 into V
       03AE 002C'
       03B0 8C00 
  1267 03B2 10E8          JMP   LDFNT2

 Xa99 Cross Assembler
VERSION 1.2/A                                                PAGE 0025
  1268 03B4 004C  TMP006  DATA  >004C,64*8,>0000      ; Pointer to TI title sc
       03B6 0200 
       03B8 0000 
  1269 03BA 004E          DATA  >004E,64*7,>0101      ; Pointer to upper case 
       03BC 01C0 
       03BE 0101 
  1270 03C0 004E          DATA  >004E,96*7,>0101      ; Pointer to upper & low
       03C2 02A0 
       03C4 0101 
  1271 03C6 0050          DATA  >0050,32*7,>0101      ; Pointer to lower case 
       03C8 00E0 
       03CA 0101 
  1272            *:..
  1273            
  1274            * PUTSTR (DATA P0) / XUTSTR ..:
  1275            ************************************************************
  1276            * Put length-byte prefixed string at current YX
  1277            ************************************************************
  1278            *  BL   @PUTSTR
  1279            *  DATA P0
  1280            *
  1281            *  P0 = Pointer to string
  1282            *-----------------------------------------------------------
  1283            *  REMARKS
  1284            *  First byte of string must contain length
  1285            ********@*****@*********************@***********************
  1286 03CC C17B  PUTSTR  MOV   *R11+,TMP1
  1287 03CE D1B5          MOVB  *TMP1+,TMP2           ; Get length byte
  1288 03D0 C1CB  XUTSTR  MOV   R11,TMP3
  1289 03D2 06A0          BL    @YX2PNT               ; Get VDP destination ad
       03D4 029A'
  1290 03D6 C2C7          MOV   TMP3,R11        
  1291 03D8 0986          SRL   TMP2,8                ; Right justify length b
  1292 03DA 0460          B     @XPYM2V               ; Display string
       03DC 00F4'
  1293            *:..
  1294            
  1295            * PUTAT  (DATA P0) ..:
  1296            ************************************************************
  1297            * Put length-byte prefixed string at YX
  1298            ************************************************************
  1299            *  BL   @PUTAT
  1300            *  DATA P0,P1
  1301            *
  1302            *  P0 = YX position
  1303            *  P1 = Pointer to string
  1304            *-----------------------------------------------------------
  1305            *  REMARKS
  1306            *  First byte of string must contain length
  1307            ********@*****@*********************@***********************
  1308 03DE C83B  PUTAT   MOV   *R11+,@WYX            ; Set YX position
       03E0 832A 
  1309 03E2 0460          B     @PUTSTR     
       03E4 03CC'
  1310            *:..
  1311            
  1312            * HCHAR  (DATA P0,P1,...,EOL) ..:
  1313            ************************************************************
  1314            * Repeat characters horizontally at YX

 Xa99 Cross Assembler
VERSION 1.2/A                                                PAGE 0026
  1315            ************************************************************
  1316            *  BL    @HCHAR
  1317            *  DATA  P0,P1
  1318            *  ...
  1319            *  DATA  EOL                        ; End-of-list
  1320            *-----------------------------------------------------------
  1321            *  P0HB = Y position
  1322            *  P0LB = X position
  1323            *  P1HB = Byte to write
  1324            *  P1LB = Number of times to repeat
  1325            ********@*****@*********************@***********************
  1326 03E6 C83B  HCHAR   MOV   *R11+,@WYX            ; Set YX position
       03E8 832A 
  1327 03EA D17B          MOVB  *R11+,TMP1
  1328 03EC 0985          SRL   TMP1,8                ; Byte to write
  1329 03EE D1BB          MOVB  *R11+,TMP2
  1330 03F0 0986          SRL   TMP2,8                ; Repeat count
  1331 03F2 C1CB          MOV   R11,TMP3
  1332 03F4 06A0          BL    @YX2PNT               ; Get VDP address into T
       03F6 029A'
  1333            *-----------------------------------------------------------
  1334            *    Draw line
  1335            *-----------------------------------------------------------
  1336 03F8 020B          LI    R11,HCHAR1  
       03FA 0400'
  1337 03FC 0460          B     @XFILV                ; Draw
       03FE 0082'
  1338            *-----------------------------------------------------------
  1339            *    Do housekeeping
  1340            *-----------------------------------------------------------
  1341 0400 8817  HCHAR1  C     *TMP3,@WHFFFF         ; End-Of-List marker fou
       0402 002A'
  1342 0404 1302          JEQ   HCHAR2                ; Yes, exit
  1343 0406 C2C7          MOV   TMP3,R11
  1344 0408 10EE          JMP   HCHAR                 ; Next one
  1345 040A 05C7  HCHAR2  INCT  TMP3
  1346 040C 0457          B     *TMP3                 ; Exit
  1347            *:..
  1348            
  1349            * VCHAR  (DATA P0,P1,...,EOL) ..:
  1350            ************************************************************
  1351            * Repeat characters vertically at YX
  1352            ************************************************************
  1353            *  BL    @VCHAR
  1354            *  DATA  P0,P1
  1355            *  ...
  1356            *  DATA  EOL                        ; End-of-list
  1357            *-----------------------------------------------------------
  1358            *  P0HB = Y position
  1359            *  P0LB = X position
  1360            *  P1HB = Byte to write
  1361            *  P1LB = Number of times to repeat
  1362            ********@*****@*********************@***********************
  1363 040E C83B  VCHAR   MOV   *R11+,@WYX            ; Set YX position
       0410 832A 
  1364 0412 C1CB          MOV   R11,TMP3              ; Save R11 in TMP3
  1365 0414 C220  VCHAR1  MOV   @WCOLMN,TMP4          ; Get columns per row
       0416 833A 
  1366 0418 06A0          BL    @YX2PNT               ; Get VDP address into T

 Xa99 Cross Assembler
VERSION 1.2/A                                                PAGE 0027
       041A 029A'
  1367 041C D177          MOVB  *TMP3+,TMP1           ; Byte to write        
  1368 041E D1B7          MOVB  *TMP3+,TMP2
  1369 0420 0986          SRL   TMP2,8                ; Repeat count        
  1370            *-----------------------------------------------------------
  1371            *    Setup VDP write address
  1372            *-----------------------------------------------------------
  1373 0422 0264  VCHAR2  ORI   TMP0,>4000
       0424 4000 
  1374 0426 06C4  VCHAR3  SWPB  TMP0
  1375 0428 D804          MOVB  TMP0,@VDPA
       042A 8C02 
  1376 042C 06C4          SWPB  TMP0
  1377 042E D804          MOVB  TMP0,@VDPA
       0430 8C02 
  1378            *-----------------------------------------------------------
  1379            *    Dump tile to VDP and do housekeeping
  1380            *-----------------------------------------------------------
  1381 0432 D7C5          MOVB  TMP1,*R15             ; Dump tile to VDP
  1382 0434 A108          A     TMP4,TMP0             ; Next row
  1383 0436 0606          DEC   TMP2
  1384 0438 16F6          JNE   VCHAR3        
  1385 043A 8817          C     *TMP3,@WHFFFF         ; End-Of-List marker fou
       043C 002A'
  1386 043E 1303          JEQ   VCHAR4                ; Yes, exit
  1387 0440 C837          MOV   *TMP3+,@WYX           ; Save YX position
       0442 832A 
  1388 0444 10E7          JMP   VCHAR1                ; Next one
  1389 0446 05C7  VCHAR4  INCT  TMP3       
  1390 0448 0457          B     *TMP3                 ; Exit
  1391            *:..        
  1392            
  1393            * FILBOX (DATA P0,P1,P2,...,EOL) ..:
  1394            ************************************************************
  1395            * FILBOX - Fill box with character
  1396            ************************************************************
  1397            *  BL   @FILBOX
  1398            *  DATA P0,P1,P2
  1399            *  ...
  1400            *  DATA EOL
  1401            *-----------------------------------------------------------
  1402            *  P0HB = Upper left corner Y
  1403            *  P0LB = Upper left corner X
  1404            *  P1HB = Height
  1405            *  P1LB = Width
  1406            *  P2HB = >00
  1407            *  P2LB = Character to fill
  1408            ********@*****@*********************@***********************
  1409 044A C83B  FILBOX  MOV   *R11+,@WYX            ; Upper left corner
       044C 832A 
  1410 044E D1FB          MOVB  *R11+,TMP3            ; Height in TMP3
  1411 0450 D1BB          MOVB  *R11+,TMP2            ; Width in TMP2       
  1412 0452 C17B          MOV   *R11+,TMP1            ; Byte to fill       
  1413 0454 C20B          MOV   R11,TMP4              ; Save R11
  1414 0456 0986          SRL   TMP2,8                ; Right-align width
  1415 0458 0987          SRL   TMP3,8                ; Right-align height
  1416            *-----------------------------------------------------------
  1417            *  Do single row
  1418            *-----------------------------------------------------------

 Xa99 Cross Assembler
VERSION 1.2/A                                                PAGE 0028
  1419 045A 06A0  FILBO1  BL    @YX2PNT               ; Get VDP address into T
       045C 029A'
  1420 045E 020B          LI    R11,FILBO2            ; New return address  
       0460 0466'
  1421 0462 0460          B     @XFILV                ; Fill VRAM with byte
       0464 0082'
  1422            *-----------------------------------------------------------
  1423            *  Recover width & character
  1424            *-----------------------------------------------------------
  1425 0466 C108  FILBO2  MOV   TMP4,TMP0
  1426 0468 0224          AI    TMP0,-3               ; R11 - 3
       046A FFFD 
  1427 046C D1B4          MOVB  *TMP0+,TMP2           ; Get Width/Height
  1428 046E 0986          SRL   TMP2,8                ; Right align
  1429 0470 C154          MOV   *TMP0,TMP1            ; Get character to fill
  1430            *-----------------------------------------------------------
  1431            *  Housekeeping
  1432            *-----------------------------------------------------------
  1433 0472 A820          A     @WH100,@BY            ; Y=Y+1
       0474 0018'
       0476 832A 
  1434 0478 0607          DEC   TMP3
  1435 047A 15EF          JGT   FILBO1                ; Process next row      
  1436 047C 8818          C     *TMP4,@WHFFFF         ; End-Of-List marker fou
       047E 002A'
  1437 0480 1302          JEQ   FILBO3                ; Yes, exit
  1438 0482 C2C8          MOV   TMP4,R11
  1439 0484 10E2          JMP   FILBOX                ; Next one
  1440 0486 05C8  FILBO3  INCT  TMP4
  1441 0488 0458          B     *TMP4                 ; Exit
  1442            *:..
  1443            
  1444            * PUTBOX (DATA P0,P1,P2,P3,...,EOL) ..:
  1445            ************************************************************
  1446            * PUTBOX - Put tiles in box
  1447            ************************************************************
  1448            *  BL   @PUTBOX
  1449            *  DATA P0,P1,P2,P3
  1450            *  ...
  1451            *  DATA EOL
  1452            *-----------------------------------------------------------
  1453            *  P0HB = Upper left corner Y
  1454            *  P0LB = Upper left corner X
  1455            *  P1HB = Box height
  1456            *  P1LB = Box width
  1457            *  P2   = Pointer to length-byte prefixed string
  1458            *  P3HB = Repeat box A-times vertically
  1459            *  P3LB = Repeat box B-times horizontally
  1460            *-----------------------------------------------------------
  1461            *  Register usage
  1462            *  ; TMP0   = work copy of YX cursor position
  1463            *  ; TMP1HB = Width  of box + X
  1464            *  ; TMP2HB = Height of box + Y
  1465            *  ; TMP3   = Pointer to string
  1466            *  ; TMP4   = Counter for string
  1467            *  ; @WAUX1 = Box AB repeat count
  1468            *  ; @WAUX2 = Copy of R11
  1469            *  ; @WAUX3 = YX position for next diagonal box
  1470            *-----------------------------------------------------------

 Xa99 Cross Assembler
VERSION 1.2/A                                                PAGE 0029
  1471            *  ; Only byte operations on TMP1HB & TMP2HB.  
  1472            *  ; LO bytes of TMP1 and TMP2 reserved for future use.
  1473            ********@*****@*********************@***********************
  1474 048A C13B  PUTBOX  MOV   *R11+,TMP0            ; P0 - Upper left corner
  1475 048C C15B          MOV   *R11,TMP1             ; P1 - Height/Width in T
  1476 048E C1BB          MOV   *R11+,TMP2            ; P1 - Height/Width in T
  1477 0490 C1FB          MOV   *R11+,TMP3            ; P2 - Pointer to string
  1478 0492 C83B          MOV   *R11+,@WAUX1          ; P3 - Box repeat count 
       0494 833C 
  1479 0496 C80B          MOV   R11,@WAUX2            ; Save R11
       0498 833E 
  1480            *-----------------------------------------------------------
  1481            *  Calculate some positions
  1482            *-----------------------------------------------------------
  1483 049A B184  PUTBO0  AB    TMP0,TMP2             ; TMP2HB = height + Y
  1484 049C 06C4          SWPB  TMP0
  1485 049E 06C5          SWPB  TMP1
  1486 04A0 B144          AB    TMP0,TMP1             ; TMP1HB = width  + X
  1487 04A2 06C4          SWPB  TMP0       
  1488 04A4 0A1C          SLA   CONFIG,1              ; \ clear config bit 0
  1489 04A6 091C          SRL   CONFIG,1              ; / is only 4 bytes     
  1490 04A8 C804          MOV   TMP0,@WAUX3           ; Set additional work co
       04AA 8340 
  1491            *-----------------------------------------------------------
  1492            *  Setup VDP write address
  1493            *-----------------------------------------------------------
  1494 04AC C804  PUTBO1  MOV   TMP0,@WYX             ; Set YX cursor        
       04AE 832A 
  1495 04B0 06A0          BL    @YX2PNT               ; Calculate VDP address 
       04B2 029A'
  1496 04B4 06A0          BL    @VDWA                 ; Set VDP write address 
       04B6 01D0'
  1497 04B8 C120          MOV   @WYX,TMP0
       04BA 832A 
  1498            *-----------------------------------------------------------
  1499            *  Prepare string for processing
  1500            *-----------------------------------------------------------
  1501 04BC 2320          COC   @WBIT0,CONFIG         ; state flag 0 set ?
       04BE 000A'
  1502 04C0 1302          JEQ   PUTBO2                ; Yes, skip length byte 
  1503 04C2 D237          MOVB  *TMP3+,TMP4           ; Get length byte ...
  1504 04C4 0988          SRL   TMP4,8                ; ... and right justify 
  1505            *-----------------------------------------------------------
  1506            *  Write line of tiles in box
  1507            *-----------------------------------------------------------
  1508 04C6 D7F7  PUTBO2  MOVB  *TMP3+,*R15           ; Write to VDP
  1509 04C8 0608          DEC   TMP4                 
  1510 04CA 1310          JEQ   PUTBO3                ; End of string. Repeat 
  1511            *-----------------------------------------------------------
  1512            *    Adjust cursor
  1513            *-----------------------------------------------------------
  1514 04CC 0584          INC   TMP0                  ; X=X+1
  1515 04CE 06C4          SWPB  TMP0
  1516 04D0 9144          CB    TMP0,TMP1             ; Right boundary reached
  1517 04D2 06C4          SWPB  TMP0
  1518 04D4 11F8          JLT   PUTBO2                ; Not yet, continue
  1519 04D6 0224          AI    TMP0,>0100            ; Y=Y+1        
       04D8 0100 
  1520 04DA D804          MOVB  TMP0,@WYX             ; Update Y cursor

 Xa99 Cross Assembler
VERSION 1.2/A                                                PAGE 0030
       04DC 832A 
  1521 04DE 9184          CB    TMP0,TMP2             ; Bottom boundary reache
  1522 04E0 1305          JEQ   PUTBO3                ; Yes, exit        
  1523            *-----------------------------------------------------------
  1524            *  Recover starting column
  1525            *-----------------------------------------------------------
  1526 04E2 C120          MOV   @WYX,TMP0             ; ... from YX cursor
       04E4 832A 
  1527 04E6 026C          ORI   CONFIG,>8000          ; CONFIG register bit 0=
       04E8 8000 
  1528 04EA 10E0          JMP   PUTBO1                ; Draw next line        
  1529            *-----------------------------------------------------------
  1530            *  Handling repeating of box
  1531            *-----------------------------------------------------------
  1532 04EC C120  PUTBO3  MOV   @WAUX1,TMP0           ; Repeat box ?
       04EE 833C 
  1533 04F0 1328          JEQ   PUTBO9                ; No, move on to next li
  1534            *-----------------------------------------------------------
  1535            *     Repeat horizontally
  1536            *-----------------------------------------------------------
  1537 04F2 06C4          SWPB  TMP0                  ; BA
  1538 04F4 D104          MOVB  TMP0,TMP0             ; B = 0 ?               
  1539 04F6 130D          JEQ   PUTBO4                ; Yes, repeat vertically
  1540 04F8 06C4          SWPB  TMP0                  ; AB
  1541 04FA 0604          DEC   TMP0                  ; B = B - 1
  1542 04FC C804          MOV   TMP0,@WAUX1           ; Update AB repeat count
       04FE 833C 
  1543 0500 D805          MOVB  TMP1,@WAUX3+1         ; New X position        
       0502 8341 
  1544 0504 C120          MOV   @WAUX3,TMP0           ; Get new YX position
       0506 8340 
  1545 0508 C1E0          MOV   @WAUX2,TMP3           
       050A 833E 
  1546 050C 0227          AI    TMP3,-6               ; Back to P1 
       050E FFFA 
  1547 0510 1014          JMP   PUTBO8
  1548            *-----------------------------------------------------------
  1549            *     Repeat vertically
  1550            *-----------------------------------------------------------
  1551 0512 06C4  PUTBO4  SWPB  TMP0                  ; AB
  1552 0514 D104          MOVB  TMP0,TMP0             ; A = 0 ?
  1553 0516 13EA          JEQ   PUTBO3                ; Yes, check next entry 
  1554 0518 0224          AI    TMP0,->0100           ; A = A - 1
       051A FF00 
  1555 051C C804          MOV   TMP0,@WAUX1           ; Update AB repeat count
       051E 833C 
  1556 0520 C1E0          MOV   @WAUX2,TMP3           ; \
       0522 833E 
  1557 0524 0607          DEC   TMP3                  ; / Back to P3LB
  1558 0526 D817          MOVB  *TMP3,@WAUX1+1        ; Update B repeat count 
       0528 833D 
  1559 052A D106          MOVB  TMP2,TMP0             ; New Y position        
  1560 052C 06C4          SWPB  TMP0
  1561 052E 0227          AI    TMP3,-6               ; Back to P0LB
       0530 FFFA 
  1562 0532 D137          MOVB  *TMP3+,TMP0
  1563 0534 06C4          SWPB  TMP0
  1564 0536 C804          MOV   TMP0,@WAUX3           ; Set new YX position   
       0538 8340 

 Xa99 Cross Assembler
VERSION 1.2/A                                                PAGE 0031
  1565            *-----------------------------------------------------------
  1566            *      Get Height, Width and reset string pointer
  1567            *-----------------------------------------------------------
  1568 053A C157  PUTBO8  MOV   *TMP3,TMP1            ; Get P1 into TMP1
  1569 053C C1B7          MOV   *TMP3+,TMP2           ; Get P1 into TMP2
  1570 053E C1D7          MOV   *TMP3,TMP3            ; Get P2 into TMP3
  1571 0540 10AC          JMP   PUTBO0                ; Next box              
  1572            *-----------------------------------------------------------
  1573            *  Next entry in list
  1574            *-----------------------------------------------------------
  1575 0542 C2E0  PUTBO9  MOV   @WAUX2,R11            ; Restore R11
       0544 833E 
  1576 0546 881B          C     *R11,@WHFFFF          ; End-Of-List marker fou
       0548 002A'
  1577 054A 1301          JEQ   PUTBOA                ; Yes, exit
  1578 054C 109E          JMP   PUTBOX                ; Next one
  1579 054E 0A2C  PUTBOA  SLA   CONFIG,2              ; \ clear config bits 0 
  1580 0550 092C          SRL   CONFIG,2              ; / is only 4 bytes
  1581 0552 045B          B     *R11                  ; Exit
  1582            *:..
  1583            
  1584            * MKNUM  (DATA P0,P1,P2) ..:
  1585            ************************************************************
  1586            * MKNUM - Convert unsigned number to string
  1587            ************************************************************
  1588            *  BL   @MKNUM
  1589            *  DATA P0,P1,P2
  1590            *
  1591            *  P0   = Pointer to 16 bit unsigned number
  1592            *  P1   = Pointer to 5 byte string buffer
  1593            *  P2HB = Offset for ASCII digit
  1594            *  P2LB = Character for replacing leading 0's
  1595            *
  1596            *  (CONFIG:0 = 1) = Display number at cursor YX
  1597            ********@*****@*********************@***********************
  1598 0554 0207  MKNUM   LI    TMP3,5                ; Digit counter
       0556 0005 
  1599 0558 C17B          MOV   *R11+,TMP1            ; \ Get 16 bit unsigned 
  1600 055A C155          MOV   *TMP1,TMP1            ; /
  1601 055C C23B          MOV   *R11+,TMP4            ; Pointer to string buff
  1602 055E 0228          AI    TMP4,4                ; Get end of buffer
       0560 0004 
  1603 0562 0206          LI    TMP2,10               ; Divide by 10 to isolat
       0564 000A 
  1604            *-----------------------------------------------------------
  1605            *  Do string conversion
  1606            *-----------------------------------------------------------
  1607 0566 04C4  MKNUM1  CLR   TMP0                  ; Clear the high word of
  1608 0568 3D06          DIV   TMP2,TMP0             ; (TMP0:TMP1) / 10 (TMP2
  1609 056A 06C5          SWPB  TMP1                  ; Move to high-byte for 
  1610 056C B15B          AB    *R11,TMP1             ; Add offset for ASCII d
  1611 056E D605          MOVB  TMP1,*TMP4            ; Write remainder to str
  1612 0570 C144          MOV   TMP0,TMP1             ; Move integer result in
  1613 0572 0608          DEC   TMP4                  ; Adjust string pointer 
  1614 0574 0607          DEC   TMP3                  ; Decrease counter
  1615 0576 16F7          JNE   MKNUM1                ; Do next digit
  1616            *-----------------------------------------------------------
  1617            *  Replace leading 0's with fill character
  1618            *-----------------------------------------------------------

 Xa99 Cross Assembler
VERSION 1.2/A                                                PAGE 0032
  1619 0578 0207          LI    TMP3,4                ; Check first 4 digits
       057A 0004 
  1620 057C 0588          INC   TMP4                  ; Too far, back to buffe
  1621 057E C11B          MOV   *R11,TMP0
  1622 0580 0A84          SLA   TMP0,8                ; Only keep fill charact
  1623 0582 96D8  MKNUM2  CB    *TMP4,*R11            ; Digit = 0 ?
  1624 0584 1305          JEQ   MKNUM4                ; Yes, replace with fill
  1625 0586 05CB  MKNUM3  INCT  R11
  1626 0588 2320          COC   @WBIT0,CONFIG         ; Check if 'display' bit
       058A 000A'
  1627 058C 1305          JEQ   MKNUM5                ; Yes, so show at curren
  1628 058E 045B          B     *R11                  ; Exit
  1629 0590 DE04  MKNUM4  MOVB  TMP0,*TMP4+           ; Replace leading 0 with
  1630 0592 0607          DEC   TMP3                  ; 4th digit processed ?
  1631 0594 13F8          JEQ   MKNUM3                ; Yes, exit
  1632 0596 10F5          JMP   MKNUM2                ; No, next one
  1633            *-----------------------------------------------------------
  1634            *  Display integer on screen at current YX position
  1635            *-----------------------------------------------------------
  1636 0598 024C  MKNUM5  ANDI  CONFIG,>7FFF          ; Reset bit 0
       059A 7FFF 
  1637 059C C10B          MOV   R11,TMP0
  1638 059E 0224          AI    TMP0,-4
       05A0 FFFC 
  1639 05A2 C154          MOV   *TMP0,TMP1            ; Get buffer address
  1640 05A4 0206          LI    TMP2,>0500            ; String length = 5
       05A6 0500 
  1641 05A8 0460          B     @XUTSTR               ; Display string        
       05AA 03D0'
  1642            * :..
  1643            
  1644            * PUTNUM (DATA P0,P1,P2,P3) ..:
  1645            ************************************************************
  1646            * PUTNUM - Put unsigned number on screen 
  1647            ************************************************************
  1648            *  BL   @PUTNUM
  1649            *  DATA P0,P1,P2,P3
  1650            *-----------------------------------------------------------
  1651            *  P0   = YX position
  1652            *  P1   = Pointer to 16 bit unsigned number
  1653            *  P2   = Pointer to 5 byte string buffer
  1654            *  P3HB = Offset for ASCII digit
  1655            *  P3LB = Character for replacing leading 0's
  1656            ********@*****@*********************@***********************
  1657 05AC C83B  PUTNUM  MOV   *R11+,@WYX            ; Set cursor
       05AE 832A 
  1658 05B0 026C          ORI   CONFIG,>8000          ; CONFIG register bit 0=
       05B2 8000 
  1659 05B4 10CF          JMP   MKNUM                 ; Convert number and dis
  1660            *:..
  1661            
  1662            * VIEW   (DATA P0,P1,P2,P3) ..:
  1663            ************************************************************
  1664            * VIEW - Viewport into virtual screen
  1665            ************************************************************
  1666            *  BL   @VIEW
  1667            *  DATA P0,P1,P2,P3,P4
  1668            *-----------------------------------------------------------
  1669            *  P0   = Pointer to RAM buffer

 Xa99 Cross Assembler
VERSION 1.2/A                                                PAGE 0033
  1670            *  P1   = Physical screen - upper left corner YX of viewport
  1671            *  P2HB = Physical screen - Viewport height
  1672            *  P2LB = Physical screen - Viewport width
  1673            *  P3   = Virtual screen  - VRAM base address
  1674            *  P4   = Virtual screen  - Number of columns 
  1675            *
  1676            *  TMP0 must contain the YX offset in virtual screen
  1677            *-----------------------------------------------------------
  1678            * Memory usage
  1679            * WAUX1 = Virtual screen VRAM base
  1680            * WAUX2 = Virtual screen columns per row
  1681            * WAUX3 = Virtual screen YX
  1682            *
  1683            * RAM buffer (offset)
  1684            * 01  Physical screen VRAM base
  1685            * 23  Physical screen columns per row
  1686            * 45  Physical screen YX (viewport upper left corner)
  1687            * 67  Height & width of viewport
  1688            * 89  Return address
  1689            ********@*****@*********************@***********************
  1690 05B6 C23B  VIEW    MOV   *R11+,TMP4            ; P0: Get pointer to RAM
  1691 05B8 C620          MOV   @WBASE,*TMP4          ; RAM 01 - Save physical
       05BA 8328 
  1692 05BC CA20          MOV   @WCOLMN,@2(TMP4)      ; RAM 23 - Save physical
       05BE 833A 
       05C0 0002 
  1693 05C2 CA3B          MOV   *R11+,@4(TMP4)        ; RAM 45 - P1: Get viewp
       05C4 0004 
  1694 05C6 C1FB          MOV   *R11+,TMP3            ; 
  1695 05C8 CA07          MOV   TMP3,@6(TMP4)         ; RAM 67 - P2: Get viewp
       05CA 0006 
  1696 05CC C83B          MOV   *R11+,@WAUX1          ; P3: Get virtual screen
       05CE 833C 
  1697 05D0 C83B          MOV   *R11+,@WAUX2          ; P4: Get virtual screen
       05D2 833E 
  1698 05D4 C804          MOV   TMP0,@WAUX3           ; Get upper left corner 
       05D6 8340 
  1699 05D8 CA0B          MOV   R11,@8(TMP4)          ; RAM 89 - Store R11 for
       05DA 0008 
  1700 05DC 0A1C          SLA   CONFIG,1              ; \
  1701 05DE 091C          SRL   CONFIG,1              ; / Clear CONFIG bits 0
  1702 05E0 0987          SRL   TMP3,8                ; Row counter  
  1703            *-----------------------------------------------------------
  1704            *    Set virtual screen dimension and position cursor
  1705            *-----------------------------------------------------------
  1706 05E2 C820  VIEW1   MOV   @WAUX1,@WBASE         ; Set virtual screen bas
       05E4 833C 
       05E6 8328 
  1707 05E8 C820          MOV   @WAUX2,@WCOLMN        ; Set virtual screen wid
       05EA 833E 
       05EC 833A 
  1708 05EE C820          MOV   @WAUX3,@WYX           ; Set cursor in virtual 
       05F0 8340 
       05F2 832A 
  1709            *-----------------------------------------------------------
  1710            *    Prepare for copying a single line
  1711            *-----------------------------------------------------------
  1712 05F4 06A0  VIEW2   BL    @YX2PNT               ; Get VRAM address in TM
       05F6 029A'

 Xa99 Cross Assembler
VERSION 1.2/A                                                PAGE 0034
  1713 05F8 C148          MOV   TMP4,TMP1             ; RAM buffer + 10
  1714 05FA 0225          AI    TMP1,10               ; 
       05FC 000A 
  1715 05FE C1A8          MOV   @6(TMP4),TMP2         ; \ Get RAM buffer byte 
       0600 0006 
  1716 0602 0246          ANDI  TMP2,>00FF            ; / Clear MSB
       0604 00FF 
  1717 0606 2B20          XOR   @WBIT0,CONFIG         ; Toggle bit 0
       0608 000A'
  1718 060A 2720          CZC   @WBIT0,CONFIG         ; Bit 0=0 ?
       060C 000A'
  1719 060E 130B          JEQ   VIEW4                 ; Yes! So copy from RAM 
  1720            *-----------------------------------------------------------
  1721            *    Copy line from VRAM to RAM
  1722            *-----------------------------------------------------------
  1723 0610 06A0  VIEW3   BL    @XPYV2M               ; Copy block from VRAM (
       0612 011A'
  1724 0614 C818          MOV   *TMP4,@WBASE          ; Set physical screen ba
       0616 8328 
  1725 0618 C828          MOV   @2(TMP4),@WCOLMN      ; Set physical screen co
       061A 0002 
       061C 833A 
  1726 061E C828          MOV   @4(TMP4),@WYX         ; Set cursor in physical
       0620 0004 
       0622 832A 
  1727 0624 10E7          JMP   VIEW2
  1728            *-----------------------------------------------------------
  1729            *    Copy line from RAM to VRAM
  1730            *-----------------------------------------------------------
  1731 0626 06A0  VIEW4   BL    @XPYM2V               ; Copy block to VRAM
       0628 00F4'
  1732 062A BA20          AB    @BD1,@4(TMP4)         ; Physical screen Y=Y+1
       062C 002D'
       062E 0004 
  1733 0630 B820          AB    @BD1,@WAUX3           ; Virtual screen  Y=Y+1
       0632 002D'
       0634 8340 
  1734 0636 0607          DEC   TMP3                  ; Update row counter
  1735 0638 16D4          JNE   VIEW1                 ; Next line unless all r
  1736            *-----------------------------------------------------------
  1737            *    Exit
  1738            *-----------------------------------------------------------
  1739 063A C2E8  VIEWZ   MOV   @8(TMP4),R11          ; \
       063C 0008 
  1740 063E 045B          B     *R11                  ; / exit 
  1741            * :..
  1742            
  1743                
  1744            *///////////////////////////////////////////////////////////
  1745            *                            SOUND
  1746            *///////////////////////////////////////////////////////////
  1747            
  1748            * MUTE   () / MUTE2  ..: 
  1749            ************************************************************
  1750            * MUTE - Mute all sound generators
  1751            ************************************************************
  1752            *  BL  @MUTE
  1753            *  Mute sound generators and clear sound pointer
  1754            *

 Xa99 Cross Assembler
VERSION 1.2/A                                                PAGE 0035
  1755            *  BL  @MUTE2
  1756            *  Mute sound generators without clearing sound pointer
  1757            ********@*****@*********************@***********************
  1758 0640 04E0  MUTE    CLR   @WSDLST               ; Clear sound pointer
       0642 8334 
  1759 0644 4320  MUTE2   SZC   @WBIT13,CONFIG        ; Turn off/pause sound p
       0646 0024'
  1760 0648 0204          LI    TMP0,MUTTAB
       064A 065A'
  1761 064C 0205          LI    TMP1,SOUND            ; Sound generator port >
       064E 8400 
  1762 0650 D574          MOVB  *TMP0+,*TMP1          ; Generator 0
  1763 0652 D574          MOVB  *TMP0+,*TMP1          ; Generator 1
  1764 0654 D574          MOVB  *TMP0+,*TMP1          ; Generator 2
  1765 0656 D554          MOVB  *TMP0,*TMP1           ; Generator 3
  1766 0658 045B          B     *R11
  1767 065A   9F  MUTTAB  BYTE  >9F,>BF,>DF,>FF       ; Table for muting all g
       065B   BF 
       065C   DF 
       065D   FF 
  1768            * :..
  1769            
  1770            * SDPREP (DATA P0,P1) ..:
  1771            ************************************************************
  1772            * SDPREP - Prepare for playing sound
  1773            ************************************************************
  1774            *  BL   @SDPREP
  1775            *  DATA P0,P1
  1776            *
  1777            *  P0 = Address where tune is stored
  1778            *  P1 = Option flags for sound player 
  1779            *-----------------------------------------------------------
  1780            *  REMARKS
  1781            *  Use the below equates for P1:
  1782            *
  1783            *  SDOPT1 => Tune is in CPU memory + loop
  1784            *  SDOPT2 => Tune is in CPU memory
  1785            *  SDOPT3 => Tune is in VRAM + loop
  1786            *  SDOPT4 => Tune is in VRAM
  1787            ********@*****@*********************@***********************
  1788 065E C81B  SDPREP  MOV   *R11,@WSDLST          ; Set tune address
       0660 8334 
  1789 0662 C83B          MOV   *R11+,@WSDTMP         ; Set tune address in te
       0664 8336 
  1790 0666 024C          ANDI  R12,>FFF8             ; Clear bits 13-14-15
       0668 FFF8 
  1791 066A E33B          SOC   *R11+,CONFIG          ; Set options
  1792 066C D820          MOVB  @BD1,@R13LB           ; Set initial duration
       066E 002D'
       0670 831B 
  1793 0672 045B          B     *R11
  1794            *:..
  1795                    
  1796            * SDPLAY () ..:
  1797            ************************************************************
  1798            * SDPLAY - Sound player for tune in VRAM or CPU memory
  1799            ************************************************************
  1800            *  BL  @SDPLAY
  1801            *-----------------------------------------------------------

 Xa99 Cross Assembler
VERSION 1.2/A                                                PAGE 0036
  1802            *  REMARKS
  1803            *  Set config register bit13=0 to pause player.
  1804            *  Set config register bit14=1 to repeat (or play next tune)
  1805            ********@*****@*********************@***********************
  1806 0674 2320  SDPLAY  COC   @WBIT13,CONFIG        ; Play tune ?
       0676 0024'
  1807 0678 1301          JEQ   SDPLA1                ; Yes, play
  1808 067A 045B          B     *R11
  1809            *-----------------------------------------------------------
  1810            * Initialisation
  1811            *-----------------------------------------------------------
  1812 067C 060D  SDPLA1  DEC   R13                   ; duration = duration - 
  1813 067E 9820          CB    @R13LB,@BD0           ; R13LB == 0 ?
       0680 831B 
       0682 002C'
  1814 0684 1301          JEQ   SDPLA3                ; Play next note
  1815 0686 045B  SDPLA2  B     *R11                  ; Note still busy, exit 
  1816 0688 2320  SDPLA3  COC   @WBIT15,CONFIG        ; Play tune from CPU mem
       068A 0028'
  1817 068C 131A          JEQ   MMPLAY 
  1818            *-----------------------------------------------------------
  1819            * Play tune from VDP memory
  1820            *-----------------------------------------------------------
  1821 068E C120  VDPLAY  MOV   @WSDTMP,TMP0          ; Get tune address      
       0690 8336 
  1822 0692 06C4          SWPB  TMP0
  1823 0694 D804          MOVB  TMP0,@VDPA
       0696 8C02 
  1824 0698 06C4          SWPB  TMP0
  1825 069A D804          MOVB  TMP0,@VDPA
       069C 8C02 
  1826 069E 04C4          CLR   TMP0        
  1827 06A0 D120          MOVB  @VDPR,TMP0            ; length = 0 (end of tun
       06A2 8800 
  1828 06A4 131E          JEQ   SDEXIT                ; Yes. exit
  1829 06A6 0984  VDPLA1  SRL   TMP0,8                ; Right justify length b
  1830 06A8 A804          A     TMP0,@WSDTMP          ; Adjust for next table 
       06AA 8336 
  1831 06AC D820  VDPLA2  MOVB  @VDPR,@>8400          ; Feed byte to sound gen
       06AE 8800 
       06B0 8400 
  1832 06B2 0604          DEC   TMP0
  1833 06B4 16FB          JNE   VDPLA2
  1834 06B6 D820          MOVB  @VDPR,@R13LB          ; Set duration counter  
       06B8 8800 
       06BA 831B 
  1835 06BC 05E0  VDPLA3  INCT  @WSDTMP               ; Adjust for next table 
       06BE 8336 
  1836 06C0 045B          B     *R11
  1837            *-----------------------------------------------------------
  1838            * Play tune from CPU memory
  1839            *-----------------------------------------------------------
  1840 06C2 C120  MMPLAY  MOV   @WSDTMP,TMP0
       06C4 8336 
  1841 06C6 D174          MOVB  *TMP0+,TMP1           ; length = 0 (end of tun
  1842 06C8 130C          JEQ   SDEXIT                ; Yes, exit
  1843 06CA 0985  MMPLA1  SRL   TMP1,8                ; Right justify length b
  1844 06CC A805          A     TMP1,@WSDTMP          ; Adjust for next table 
       06CE 8336 

 Xa99 Cross Assembler
VERSION 1.2/A                                                PAGE 0037
  1845 06D0 D834  MMPLA2  MOVB  *TMP0+,@>8400         ; Feed byte to sound gen
       06D2 8400 
  1846 06D4 0605          DEC   TMP1
  1847 06D6 16FC          JNE   MMPLA2
  1848 06D8 D814          MOVB  *TMP0,@R13LB          ; Set duration counter
       06DA 831B 
  1849 06DC 05E0          INCT  @WSDTMP               ; Adjust for next table 
       06DE 8336 
  1850 06E0 045B          B     *R11
  1851            *-----------------------------------------------------------
  1852            * Exit. Check if tune must be looped
  1853            *-----------------------------------------------------------
  1854 06E2 2320  SDEXIT  COC   @WBIT14,CONFIG        ; Loop flag set ?
       06E4 0026'
  1855 06E6 1607          JNE   SDEXI2                ; No, exit
  1856 06E8 C820          MOV   @WSDLST,@WSDTMP 
       06EA 8334 
       06EC 8336 
  1857 06EE D820          MOVB  @BD1,@R13LB           ; Set initial duration
       06F0 002D'
       06F2 831B 
  1858 06F4 045B  SDEXI1  B     *R11                  ; Exit
  1859 06F6 024C  SDEXI2  ANDI  CONFIG,>FFF8          ; Reset music player
       06F8 FFF8 
  1860 06FA 045B          B     *R11                  ; Exit        
  1861            * :..
  1862            
  1863            
  1864            *///////////////////////////////////////////////////////////
  1865            *                            SPEECH
  1866            *///////////////////////////////////////////////////////////
  1867            
  1868            * SPSTAT () ..:
  1869            ************************************************************
  1870            * SPSTAT - Read status register byte from speech synthesizer
  1871            ************************************************************
  1872            *  LI  TMP2,@>....
  1873            *  B   @SPSTAT
  1874            *-----------------------------------------------------------
  1875            * REMARKS
  1876            * Destroys R11 !
  1877            * 
  1878            * Register usage
  1879            * TMP0HB = Status byte read from speech synth
  1880            * TMP1   = Temporary use  (scratchpad machine code)
  1881            * TMP2   = Return address for this subroutine
  1882            * R11    = Return address (scratchpad machine code)
  1883            ********@*****@*********************@***********************
  1884 06FC 0204  SPSTAT  LI    TMP0,SPCHRD           ; (R4) = >9000
       06FE 9000 
  1885 0700 C820          MOV   @SPCODE,@MCSPRD       ; \
       0702 0054'
       0704 8322 
  1886 0706 C820          MOV   @SPCODE+2,@MCSPRD+2   ; / Load speech read cod
       0708 0056'
       070A 8324 
  1887 070C 020B          LI    R11,SPSTA1            ; Return to SPSTA1
       070E 0714'
  1888 0710 0460          B     @MCSPRD               ; Run scratchpad code

 Xa99 Cross Assembler
VERSION 1.2/A                                                PAGE 0038
       0712 8322 
  1889 0714 C820  SPSTA1  MOV   @MCCODE,@MCSPRD       ; \
       0716 004E'
       0718 8322 
  1890 071A C820          MOV   @MCCODE+2,@MCSPRD+2   ; / Restore tight loop c
       071C 0050'
       071E 8324 
  1891 0720 0456          B     *TMP2                 ; Exit
  1892            *:..
  1893                    
  1894            * SPCONN () ..:
  1895            ************************************************************
  1896            * SPCONN - Check if speech synthesizer connected
  1897            ************************************************************
  1898            * BL  @SPCONN
  1899            *-----------------------------------------------------------
  1900            * OUTPUT
  1901            * TMP0HB = Byte read from speech synth
  1902            *-----------------------------------------------------------
  1903            * REMARKS
  1904            * See Editor/Assembler manual, section 22.1.6 page 354.
  1905            * Calls SPSTAT.
  1906            * 
  1907            * Register usage
  1908            * TMP0HB = Byte read from speech synth
  1909            * TMP3   = Copy of R11
  1910            * R12    = CONFIG register
  1911            ********@*****@*********************@***********************
  1912 0722 C1CB  SPCONN  MOV   R11,TMP3              ; Save R11
  1913 0724 D820          MOVB  @BH10,@SPCHWT         ; Load >10
       0726 0021'
       0728 9400 
  1914 072A 0206          LI    TMP2,SPCON1           
       072C 0732'
  1915 072E 0460          B     @SPSTAT               ; Read status byte
       0730 06FC'
  1916 0732 0457  SPCON1  B     *TMP3                 ; Exit
  1917            *:..        
  1918            
  1919            * SPPREP (DATA P0,P1) ..:
  1920            ************************************************************
  1921            * SPPREP - Prepare for playing speech
  1922            ************************************************************
  1923            *  BL   @SPPREP
  1924            *  DATA P0,P1
  1925            *
  1926            *  P0 = Address of LPC data for external voice
  1927            *       or index of word to speak if resident voice
  1928            *  P1 = Option flags for speech player 
  1929            *-----------------------------------------------------------
  1930            *  REMARKS
  1931            *  Use the below equates for P1:
  1932            *
  1933            *  SPOPT1  => External voice
  1934            *  SPOPT2  => Resident voice
  1935            ********@*****@*********************@***********************
  1936 0734 C83B  SPPREP  MOV   *R11+,@WSPEAK         ; Set speech address
       0736 8338 
  1937 0738 024C          ANDI  R12,>E3FF             ; Clear bits 3-4-5

 Xa99 Cross Assembler
VERSION 1.2/A                                                PAGE 0039
       073A E3FF 
  1938 073C E33B          SOC   *R11+,CONFIG          ; Set options
  1939 073E 045B          B     *R11
  1940            *:..
  1941                   
  1942            * SPPLAY () ..:
  1943            ************************************************************
  1944            * SPPLAY - Speech player
  1945            ************************************************************
  1946            * BL  @SPPLAY
  1947            *-----------------------------------------------------------
  1948            * Register usage
  1949            * TMP3   = Copy of R11
  1950            * R12    = CONFIG register
  1951            ********@*****@*********************@***********************
  1952 0740 2720  SPPLAY  CZC   @WBIT3,CONFIG         ; Player off ?
       0742 0010'
  1953 0744 1332          JEQ   SPPLAZ                ; Yes, exit
  1954 0746 C1CB  SPPLA1  MOV   R11,TMP3              ; Save R11
  1955 0748 2320          COC   @TMP010,CONFIG        ; Is on/busy/external ?
       074A 07AC'
  1956 074C 1313          JEQ   SPKEX3                ; Check FIFO buffer leve
  1957 074E 2320          COC   @WBIT5,CONFIG         ; Start speak external ?
       0750 0014'
  1958 0752 1300          JEQ   SPKEXT                ; Yes, do it
  1959            *-----------------------------------------------------------
  1960            * Speak resident: ****
  1961            *-----------------------------------------------------------
  1962            *       NOT   YET
  1963            *-----------------------------------------------------------
  1964            * Speak external: Push LPC data to speech synthesizer
  1965            *-----------------------------------------------------------
  1966 0754 C120  SPKEXT  MOV   @WSPEAK,TMP0
       0756 8338 
  1967 0758 D834          MOVB  *TMP0+,@SPCHWT        ; Send byte to speech sy
       075A 9400 
  1968 075C 1000          JMP   $+2                   ; Delay
  1969 075E 0206          LI    TMP2,16
       0760 0010 
  1970 0762 D834  SPKEX1  MOVB  *TMP0+,@SPCHWT        ; Send byte to speech sy
       0764 9400 
  1971 0766 0606          DEC   TMP2
  1972 0768 16FC          JNE   SPKEX1
  1973 076A 026C          ORI   CONFIG,>1800          ; bit 4=1 (busy) & bit 5
       076C 1800 
  1974 076E C804          MOV   TMP0,@WSPEAK          ; Update LPC pointer
       0770 8338 
  1975 0772 101B          JMP   SPPLAZ                ; Exit
  1976            *-----------------------------------------------------------
  1977            * Speak external: Check synth FIFO buffer level 
  1978            *-----------------------------------------------------------
  1979 0774 0206  SPKEX3  LI    TMP2,SPKEX4           ; Set return address for
       0776 077C'
  1980 0778 0460          B     @SPSTAT               ; Get speech FIFO buffer
       077A 06FC'
  1981 077C 2120  SPKEX4  COC   @WH4000,TMP0          ; FIFO BL (buffer low) b
       077E 000C'
  1982 0780 1301          JEQ   SPKEX5                ; Yes, refill
  1983 0782 1013          JMP   SPPLAZ                ; No, exit

 Xa99 Cross Assembler
VERSION 1.2/A                                                PAGE 0040
  1984            *-----------------------------------------------------------
  1985            * Speak external: Refill synth with LPC data if FIFO buffer 
  1986            *-----------------------------------------------------------
  1987 0784 C120  SPKEX5  MOV   @WSPEAK,TMP0        
       0786 8338 
  1988 0788 0206          LI    TMP2,8                ; Bytes to send to speec
       078A 0008 
  1989 078C D174  SPKEX6  MOVB  *TMP0+,TMP1         
  1990 078E D805          MOVB  TMP1,@SPCHWT          ; Send byte to speech sy
       0790 9400 
  1991 0792 0285          CI    TMP1,SPKOFF           ; Speak off marker found
       0794 FF00 
  1992 0796 1305          JEQ   SPKEX8
  1993 0798 0606          DEC   TMP2
  1994 079A 16F8          JNE   SPKEX6                ; Send next byte
  1995 079C C804          MOV   TMP0,@WSPEAK          ; Update LPC pointer
       079E 8338 
  1996 07A0 1004  SPKEX7  JMP   SPPLAZ                ; Exit
  1997            *-----------------------------------------------------------
  1998            * Speak external: Done with speaking
  1999            *-----------------------------------------------------------
  2000 07A2 4320  SPKEX8  SZC   @TMP010,CONFIG        ; bit 3,4,5=0
       07A4 07AC'
  2001 07A6 04E0          CLR   @WSPEAK               ; Reset pointer
       07A8 8338 
  2002 07AA 0457  SPPLAZ  B     *TMP3                 ; Exit
  2003 07AC 1C00  TMP010  DATA  >1C00                 ; Binary 000111000000000
  2004            *:..
  2005            
  2006            
  2007            *///////////////////////////////////////////////////////////
  2008            *                           KEYBOARD
  2009            *///////////////////////////////////////////////////////////
  2010            
  2011            * VIRTKB () ..:
  2012            ************************************************************
  2013            * VIRTKB - Read virtual keyboard and joysticks
  2014            ************************************************************
  2015            *  BL @VIRTKB
  2016            *-----------------------------------------------------------
  2017            *  COLUMN     0     1  2  3  4  5    6   7
  2018            *         +---------------------------------+------+
  2019            *  ROW 7  |   =     .  ,  M  N  /   JS1 JS2 | Fire |
  2020            *  ROW 6  | SPACE   L  K  J  H  :;  JS1 JS2 | Left |
  2021            *  ROW 5  | ENTER   O  I  U  Y  P   JS1 JS2 | Right|
  2022            *  ROW 4  |         9  8  7  6  0   JS1 JS2 | Down |
  2023            *  ROW 3  | FCTN    2  3  4  5  1   JS1 JS2 | Up   |
  2024            *  ROW 2  | SHIFT   S  D  F  G  A           +------|
  2025            *  ROW 1  | CTRL    W  E  R  T  Q                  |
  2026            *  ROW 0  |         X  C  V  B  Z                  |
  2027            *         +----------------------------------------+
  2028            *  See MG smart programmer 1986 
  2029            *  September/Page 15 and November/Page 6
  2030            *  Also see virtual keyboard status for bits to check
  2031            *-----------------------------------------------------------
  2032            *  Register usage
  2033            *  TMP0     Keyboard matrix column to process
  2034            *  TMP1MSB  Keyboard matrix 8 bits of 1 column
  2035            *  TMP2     Virtual keyboard flags

 Xa99 Cross Assembler
VERSION 1.2/A                                                PAGE 0041
  2036            *  TMP3     Address of entry in mapping table
  2037            *  TMP4     Copy of R12 (CONFIG REGISTER)
  2038            *  R12      CRU communication
  2039            ********@*****@*********************@***********************
  2040 07AE 4320  VIRTKB  SZC   @WBIT11,CONFIG        ; Reset ANY key
       07B0 0020'
  2041 07B2 C20C          MOV   CONFIG,TMP4           ; Save R12 (CONFIG REGIS
  2042 07B4 04C4          CLR   TMP0                  ; Value in MSB! Start wi
  2043 07B6 04C6          CLR   TMP2                  ; Erase virtual keyboard
  2044 07B8 0207          LI    TMP3,KBMAP0           ; Start with column 0
       07BA 082A'
  2045            *-----------------------------------------------------------
  2046            * Check alpha lock key
  2047            *-------@-----@---------------------@-----------------------
  2048 07BC 04CC          CLR   R12
  2049 07BE 1E15          SBZ   >0015                 ; Set P5
  2050 07C0 1F07          TB    7
  2051 07C2 1302          JEQ   VIRTK1
  2052 07C4 0206          LI    TMP2,KALPHA           ; Alpha lock key down
       07C6 8000 
  2053            *-----------------------------------------------------------
  2054            * Scan keyboard matrix
  2055            *-------@-----@---------------------@-----------------------
  2056 07C8 1D15  VIRTK1  SBO   >0015                 ; Reset P5
  2057 07CA 020C          LI    R12,>0024             ; Scan full 8x8 keyboard
       07CC 0024 
  2058 07CE 30C4          LDCR  TMP0,3                ; Set keyboard column wi
  2059 07D0 020C          LI    R12,>0006             ; Load CRU base for row.
       07D2 0006 
  2060 07D4 0705          SETO  TMP1                  ; >FFFF
  2061 07D6 3605          STCR  TMP1,8                ; Bring 8 row bits into 
  2062 07D8 0545          INV   TMP1
  2063 07DA 1302          JEQ   VIRTK2                ; >0000 ?
  2064 07DC E220          SOC   @WBIT11,TMP4          ; Set ANY key in copy of
       07DE 0020'
  2065            *-----------------------------------------------------------
  2066            * Process column
  2067            *-------@-----@---------------------@-----------------------
  2068 07E0 2177  VIRTK2  COC   *TMP3+,TMP1           ; Check bit mask
  2069 07E2 1601          JNE   VIRTK3
  2070 07E4 E197          SOC   *TMP3,TMP2            ; Set virtual keyboard f
  2071 07E6 05C7  VIRTK3  INCT  TMP3
  2072 07E8 8817          C     *TMP3,@KBEOC          ; End-of-column ?
       07EA 0836'
  2073 07EC 16F9          JNE   VIRTK2                ; No, next entry
  2074 07EE 05C7          INCT  TMP3
  2075            *-----------------------------------------------------------
  2076            * Prepare for next column
  2077            *-------@-----@---------------------@-----------------------
  2078 07F0 0284  VIRTK4  CI    TMP0,>0700            ; Column 7 processed ?
       07F2 0700 
  2079 07F4 1309          JEQ   VIRTK6                ; Yes, exit
  2080 07F6 0284          CI    TMP0,>0200            ; Column 2 processed ?
       07F8 0200 
  2081 07FA 1303          JEQ   VIRTK5                ; Yes, skip
  2082 07FC 0224          AI    TMP0,>0100
       07FE 0100 
  2083 0800 10E3          JMP   VIRTK1
  2084 0802 0204  VIRTK5  LI    TMP0,>0500            ; Skip columns 3-4      

 Xa99 Cross Assembler
VERSION 1.2/A                                                PAGE 0042
       0804 0500 
  2085 0806 10E0          JMP   VIRTK1
  2086            *-----------------------------------------------------------
  2087            * Exit
  2088            *-------@-----@---------------------@-----------------------
  2089 0808 C308  VIRTK6  MOV   TMP4,CONFIG           ; Restore CONFIG registe
  2090 080A C806          MOV   TMP2,@WVRTKB          ; Save virtual keyboard 
       080C 8332 
  2091 080E 1601          JNE   VIRTK7        
  2092 0810 045B          B     *R11                  ; Exit
  2093 0812 0286  VIRTK7  CI    TMP2,>FFFF            ; FCTN-QUIT pressed ?
       0814 FFFF 
  2094 0816 1603          JNE   VIRTK8                ; No
  2095 0818 0701          SETO  R1                    ; Set exit flag
  2096 081A 0460          B     @RUNLI1               ; Yes, reset computer
       081C 09AA'
  2097 081E 0286  VIRTK8  CI    TMP2,KALPHA           ; Only alpha-lock presse
       0820 8000 
  2098 0822 1602          JNE   VIRTK9
  2099 0824 4320          SZC   @WBIT11,CONFIG        ; Yes, so reset ANY key
       0826 0020'
  2100 0828 045B  VIRTK9  B     *R11                  ; Exit
  2101            *-----------------------------------------------------------
  2102            * Mapping table
  2103            *-------@-----@---------------------@-----------------------
  2104            *                                   ; Bit 01234567
  2105 082A 1100  KBMAP0  DATA  >1100,>FFFF           ; >11 00010001  FCTN QUI
       082C FFFF 
  2106 082E 0200          DATA  >0200,K1FIRE          ; >02 00000010  spacebar
       0830 0020 
  2107 0832 0400          DATA  >0400,KENTER          ; >04 00000100  enter
       0834 4000 
  2108 0836 FFFF  KBEOC   DATA  >FFFF
  2109 0838 0800  KBMAP1  DATA  >0800,KBACK           ; >08 00001000  FCTN BAC
       083A 1000 
  2110 083C 2000          DATA  >2000,K1LF            ; >20 00100000  S (arrow
       083E 0200 
  2111 0840 8000          DATA  >8000,K1DN            ; >80 10000000  X (arrow
       0842 0040 
  2112 0844 FFFF          DATA  >FFFF
  2113 0846 0800  KBMAP2  DATA  >0800,KREDO           ; >08 00001000  FCTN RED
       0848 2000 
  2114 084A 2000          DATA  >2000,K1RG            ; >20 00100000  D (arrow
       084C 0100 
  2115 084E 4000          DATA  >4000,K1UP            ; >80 01000000  E (arrow
       0850 0080 
  2116 0852 FFFF          DATA  >FFFF
  2117 0854 0800  KBCOL5  DATA  >0800,KPAUSE          ; >08 00001000  P (pause
       0856 0800 
  2118 0858 8000          DATA  >8000,K1FIRE          ; >80 01000000  Q (fire)
       085A 0020 
  2119 085C FFFF          DATA  >FFFF
  2120 085E 0100  KBMAP6  DATA  >0100,K1FIRE          ; >01 00000001  joystick
       0860 0020 
  2121 0862 0200          DATA  >0200,K1LF            ; >02 00000010  joystick
       0864 0200 
  2122 0866 0400          DATA  >0400,K1RG            ; >04 00000100  joystick
       0868 0100 
  2123 086A 0800          DATA  >0800,K1DN            ; >08 00001000  joystick

 Xa99 Cross Assembler
VERSION 1.2/A                                                PAGE 0043
       086C 0040 
  2124 086E 1000          DATA  >1000,K1UP            ; >10 00010000  joystick
       0870 0080 
  2125 0872 FFFF          DATA  >FFFF
  2126 0874 0100  KBMAP7  DATA  >0100,K2FIRE          ; >01 00000001  joystick
       0876 0001 
  2127 0878 0200          DATA  >0200,K2LF            ; >02 00000010  joystick
       087A 0010 
  2128 087C 0400          DATA  >0400,K2RG            ; >04 00000100  joystick
       087E 0008 
  2129 0880 0800          DATA  >0800,K2DN            ; >08 00001000  joystick
       0882 0002 
  2130 0884 1000          DATA  >1000,K2UP            ; >10 00010000  joystick
       0886 0004 
  2131 0888 FFFF          DATA  >FFFF
  2132            *:..
  2133            
  2134            
  2135            *///////////////////////////////////////////////////////////
  2136            *                            TIMERS
  2137            *///////////////////////////////////////////////////////////
  2138            
  2139            * TMGR   () ..:
  2140            ************************************************************
  2141            * TMGR - X - Start Timer/Thread scheduler
  2142            ************************************************************
  2143            *  B @TMGR
  2144            *-----------------------------------------------------------
  2145            *  REMARKS
  2146            *  Timer/Thread scheduler. Normally called from MAIN.
  2147            *  Don't forget to set BTIHI to highest slot in use.
  2148            *
  2149            *  Register usage in TMGR8 - TMGR11
  2150            *  TMP0  = Pointer to timer table
  2151            *  R10LB = Use as slot counter
  2152            *  TMP2  = 2nd word of slot data
  2153            *  TMP3  = Address of routine to call
  2154            ********@*****@*********************@***********************
  2155 088A 0300  TMGR    LIMI  0                     ; No interrupt processin
       088C 0000 
  2156            *-----------------------------------------------------------
  2157            * Read VDP status register
  2158            *-----------------------------------------------------------
  2159 088E D120  TMGR1   MOVB  @VDPS,TMP0            ; Get VDP status registe
       0890 8802 
  2160 0892 D344          MOVB  TMP0,R13              ; Save copy of VDP statu
  2161 0894 2120          COC   @WBIT0,TMP0           ; Interupt flag set ?
       0896 000A'
  2162 0898 1316          JEQ   TMGR4                 ; Yes, process slots 0..
  2163            *-----------------------------------------------------------
  2164            * Run speech player
  2165            *-----------------------------------------------------------
  2166 089A 2320          COC   @WBIT3,CONFIG         ; Speech player on ?
       089C 0010'
  2167 089E 1602          JNE   TMGR2
  2168 08A0 06A0          BL    @SPPLA1               ; Run speech player     
       08A2 0746'
  2169            *-----------------------------------------------------------
  2170            * Run kernel thread

 Xa99 Cross Assembler
VERSION 1.2/A                                                PAGE 0044
  2171            *-----------------------------------------------------------
  2172 08A4 2320  TMGR2   COC   @WBIT8,CONFIG         ; Kernel thread blocked 
       08A6 001A'
  2173 08A8 1305          JEQ   TMGR3                 ; Yes, skip to user hook
  2174 08AA 2320          COC   @WBIT9,CONFIG         ; Kernel thread enabled 
       08AC 001C'
  2175 08AE 1602          JNE   TMGR3                 ; No, skip to user hook
  2176 08B0 0460          B     @KERNEL               ; Run kernel thread     
       08B2 0956'
  2177            *-----------------------------------------------------------
  2178            * Run user hook 
  2179            *-----------------------------------------------------------
  2180 08B4 2320  TMGR3   COC   @WBIT6,CONFIG         ; User hook blocked ?
       08B6 0016'
  2181 08B8 13EA          JEQ   TMGR1
  2182 08BA 2320          COC   @WBIT7,CONFIG         ; User hook enabled ?
       08BC 0018'
  2183 08BE 16E7          JNE   TMGR1
  2184 08C0 C120          MOV   @WTIUSR,TMP0
       08C2 832E 
  2185 08C4 0454          B     *TMP0                 ; Run user hook
  2186            *-----------------------------------------------------------
  2187            * Do some internal housekeeping
  2188            *-----------------------------------------------------------
  2189 08C6 4320  TMGR4   SZC   @TMDAT,CONFIG         ; Unblock kernel thread 
       08C8 0928'
  2190 08CA C10A          MOV   R10,TMP0
  2191 08CC 0244          ANDI  TMP0,>00FF            ; Clear HI byte
       08CE 00FF 
  2192 08D0 2320          COC   @WBIT2,CONFIG         ; PAL flag set ?
       08D2 000E'
  2193 08D4 1303          JEQ   TMGR5
  2194 08D6 0284          CI    TMP0,60               ; 1 second reached ?    
       08D8 003C 
  2195 08DA 1002          JMP   TMGR6
  2196 08DC 0284  TMGR5   CI    TMP0,50
       08DE 0032 
  2197 08E0 1101  TMGR6   JLT   TMGR7                 ; No, continue
  2198 08E2 1001          JMP   TMGR8
  2199 08E4 058A  TMGR7   INC   R10                   ; Increase tick counter
  2200            *-----------------------------------------------------------
  2201            * Loop over slots
  2202            *-----------------------------------------------------------
  2203 08E6 C120  TMGR8   MOV   @WTITAB,TMP0          ; Pointer to timer table
       08E8 832C 
  2204 08EA 024A          ANDI  R10,>FF00             ; Use R10LB as slot coun
       08EC FF00 
  2205 08EE C1D4  TMGR9   MOV   *TMP0,TMP3            ; Is slot empty ?
  2206 08F0 1316          JEQ   TMGR11                ; Yes, get next slot
  2207            *-----------------------------------------------------------
  2208            *  Check if slot should be executed
  2209            *-----------------------------------------------------------
  2210 08F2 05C4          INCT  TMP0                  ; Second word of slot da
  2211 08F4 0594          INC   *TMP0                 ; Update tick count in s
  2212 08F6 C194          MOV   *TMP0,TMP2            ; Get second word of slo
  2213 08F8 9820          CB    @TMP2HB,@TMP2LB       ; Slot target count = Sl
       08FA 830C 
       08FC 830D 
  2214 08FE 1608          JNE   TMGR10                ; No, get next slot

 Xa99 Cross Assembler
VERSION 1.2/A                                                PAGE 0045
  2215 0900 0246          ANDI  TMP2,>FF00            ; Clear internal counter
       0902 FF00 
  2216 0904 C506          MOV   TMP2,*TMP0            ; Update timer table
  2217            *-----------------------------------------------------------
  2218            *  Run slot, we only need TMP0 to survive
  2219            *-----------------------------------------------------------
  2220 0906 C804          MOV   TMP0,@WTITMP          ; Save TMP0
       0908 8330 
  2221 090A 0697          BL    *TMP3                 ; Call routine in slot
  2222 090C C120  SLOTOK  MOV   @WTITMP,TMP0          ; Restore TMP0
       090E 8330 
  2223            *-----------------------------------------------------------
  2224            *  Prepare for next slot
  2225            *-----------------------------------------------------------
  2226 0910 058A  TMGR10  INC   R10                   ; Next slot
  2227 0912 9820          CB    @R10LB,@BTIHI         ; Last slot done ?
       0914 8315 
       0916 8314 
  2228 0918 1504          JGT   TMGR12                ; yes, Wait for next VDP
  2229 091A 05C4          INCT  TMP0                  ; Offset for next slot
  2230 091C 10E8          JMP   TMGR9                 ; Process next slot
  2231 091E 05C4  TMGR11  INCT  TMP0                  ; Skip 2nd word of slot 
  2232 0920 10F7          JMP   TMGR10                ; Process next slot
  2233 0922 024A  TMGR12  ANDI  R10,>FF00             ; Use R10LB as tick coun
       0924 FF00 
  2234 0926 10B3          JMP   TMGR1
  2235 0928 0280  TMDAT   DATA  >0280                 ; Bit 8 (kernel thread) 
  2236            *:..
  2237            
  2238            * MKSLOT (DATA P0,P1,...) ..:
  2239            ************************************************************
  2240            * MKSLOT - Allocate timer slot(s)
  2241            ************************************************************
  2242            *  BL    @MKSLOT
  2243            *  BYTE  P0HB,P0LB
  2244            *  DATA  P1
  2245            *  ....
  2246            *  DATA  EOL                        ; End-of-list
  2247            *-----------------------------------------------------------
  2248            *  P0 = Slot number, target count
  2249            *  P1 = Subroutine to call via BL @xxxx if slot is fired
  2250            ********@*****@*********************@***********************
  2251 092A C13B  MKSLOT  MOV   *R11+,TMP0
  2252 092C C17B          MOV   *R11+,TMP1
  2253            *-----------------------------------------------------------
  2254            *  Calculate address of slot
  2255            *-----------------------------------------------------------
  2256 092E C184          MOV   TMP0,TMP2
  2257 0930 0966          SRL   TMP2,6                ; Right align & TMP2 = T
  2258 0932 A1A0          A     @WTITAB,TMP2          ; Add table base
       0934 832C 
  2259            *-----------------------------------------------------------
  2260            *  Add slot to table
  2261            *-----------------------------------------------------------
  2262 0936 CD85          MOV   TMP1,*TMP2+           ; Store address of subro
  2263 0938 0A84          SLA   TMP0,8                ; Get rid of slot number
  2264 093A C584          MOV   TMP0,*TMP2            ; Store target count and
  2265            *-----------------------------------------------------------
  2266            *  Check for end of list

 Xa99 Cross Assembler
VERSION 1.2/A                                                PAGE 0046
  2267            *-----------------------------------------------------------
  2268 093C 881B          C     *R11,@WHFFFF          ; End of list ?
       093E 002A'
  2269 0940 1301          JEQ   MKSLO1                ; Yes, exit
  2270 0942 10F3          JMP   MKSLOT                ; Process next entry
  2271            *-----------------------------------------------------------
  2272            *  Exit
  2273            *-----------------------------------------------------------
  2274 0944 05CB  MKSLO1  INCT  R11
  2275 0946 045B          B     *R11                  ; Exit
  2276            *:..
  2277            
  2278            * CLSLOT (DATA P0) / XLSLOT ..:
  2279            ************************************************************
  2280            * CLSLOT - Clear single timer slot
  2281            ************************************************************
  2282            *  BL    @CLSLOT
  2283            *  DATA  P0
  2284            *-----------------------------------------------------------
  2285            *  P0 = Slot number
  2286            ********@*****@*********************@***********************
  2287 0948 C13B  CLSLOT  MOV   *R11+,TMP0
  2288 094A 0A24  XLSLOT  SLA   TMP0,2                ; TMP0 = TMP0*4
  2289 094C A120          A     @WTITAB,TMP0          ; Add table base
       094E 832C 
  2290 0950 04F4          CLR   *TMP0+                ; Clear 1st word of slot
  2291 0952 04D4          CLR   *TMP0                 ; Clear 2nd word of slot
  2292 0954 045B          B     *R11                  ; Exit
  2293            *:..
  2294            
  2295            * KERNEL () ..:
  2296            ************************************************************
  2297            * KERNEL - The kernel thread
  2298            *-----------------------------------------------------------
  2299            *  REMARKS
  2300            *  You shouldn't call the kernel thread manually.
  2301            *  Instead control it via the CONFIG register.
  2302            ********@*****@*********************@***********************
  2303 0956 E320  KERNEL  SOC   @WBIT8,CONFIG         ; Block kernel thread
       0958 001A'
  2304 095A 2320          COC   @WBIT13,CONFIG        ; Sound player on ?
       095C 0024'
  2305 095E 1602          JNE   KERNE1
  2306 0960 06A0          BL    @SDPLA1               ; Run sound player
       0962 067C'
  2307 0964 06A0  KERNE1  BL    @VIRTKB               ; Scan virtual keyboard
       0966 07AE'
  2308 0968 2320          COC   @WBIT12,CONFIG        ; Keyboard mode real ?
       096A 0022'
  2309 096C 1600          JNE   KERNEZ                ; No, exit
  2310            *       BL    @REALKB               ; OPTIONAL! Scan full ke
  2311 096E 0460  KERNEZ  B     @TMGR3                ; Exit
       0970 08B4'
  2312                      
  2313            *:..
  2314            
  2315            * MKHOOK (DATA P0) ..:
  2316            ************************************************************
  2317            * MKHOOK - Allocate user hook

 Xa99 Cross Assembler
VERSION 1.2/A                                                PAGE 0047
  2318            ************************************************************
  2319            *  BL    @MKHOOK
  2320            *  DATA  P0
  2321            *-----------------------------------------------------------
  2322            *  P0 = Address of user hook
  2323            *-----------------------------------------------------------
  2324            *  REMARKS
  2325            *  The user hook gets executed after the kernel thread.
  2326            *  The user hook must always exit with "B @HOOKOK"
  2327            ********@*****@*********************@***********************
  2328 0972 C83B  MKHOOK  MOV   *R11+,@WTIUSR         ; Set user hook address
       0974 832E 
  2329 0976 026C          ORI   CONFIG,ENUSR          ; Enable user hook
       0978 0100 
  2330 097A 045B  MKHOO1  B     *R11                  ; Return
  2331      088E' HOOKOK  EQU   TMGR1                 ; Exit point for user ho
  2332            *:..
  2333            
  2334            
  2335            *///////////////////////////////////////////////////////////
  2336            *                       MISC FUNCTIONS
  2337            *///////////////////////////////////////////////////////////
  2338            
  2339            * POPR.  (...) ..:
  2340            ************************************************************
  2341            * POPR. - Pop registers & return to caller 
  2342            ************************************************************
  2343            *  B  @POPRG.
  2344            *-----------------------------------------------------------
  2345            *  REMARKS
  2346            *  R11 must be at stack bottom
  2347            ********@*****@*********************@***********************
  2348 097C C0F9  POPR3   MOV   *STACK+,R3
  2349 097E C0B9  POPR2   MOV   *STACK+,R2
  2350 0980 C079  POPR1   MOV   *STACK+,R1
  2351 0982 C039  POPR0   MOV   *STACK+,R0
  2352 0984 C2F9  POPRT   MOV   *STACK+,R11
  2353 0986 045B          B     *R11
  2354            *:..
  2355                    
  2356            * RND    (DATA P0) / RNDX ..:
  2357            ************************************************************
  2358            * RND - Generate random number
  2359            ************************************************************
  2360            *  BL   @RND
  2361            *  DATA P0,P1
  2362            *-----------------------------------------------------------
  2363            *  P0 = Highest random number allowed
  2364            *  P1 = Address of random seed
  2365            *-----------------------------------------------------------
  2366            *  BL   @RNDX
  2367            *
  2368            *  TMP0 = Highest random number allowed
  2369            *  TMP3 = Address of random seed
  2370            *-----------------------------------------------------------
  2371            *  OUTPUT
  2372            *  TMP0 = The generated random number
  2373            ********@*****@*********************@***********************
  2374 0988 C13B  RND     MOV   *R11+,TMP0            ; Highest number allowed

 Xa99 Cross Assembler
VERSION 1.2/A                                                PAGE 0048
  2375 098A C1FB          MOV   *R11+,TMP3            ; Get address of random 
  2376 098C 04C5  RNDX    CLR   TMP1
  2377 098E C197          MOV   *TMP3,TMP2            ; Get random seed
  2378 0990 1601          JNE   RND1
  2379 0992 0586          INC   TMP2                  ; May not be zero
  2380 0994 0916  RND1    SRL   TMP2,1
  2381 0996 1702          JNC   RND2
  2382 0998 29A0          XOR   @RNDDAT,TMP2
       099A 09A4'
  2383 099C C5C6  RND2    MOV   TMP2,*TMP3            ; Store new random seed
  2384 099E 3D44          DIV   TMP0,TMP1
  2385 09A0 C106          MOV   TMP2,TMP0         
  2386 09A2 045B          B     *R11                  ; Exit
  2387 09A4 B400  RNDDAT  DATA  >0B400                ; The magic number      
  2388            *:..
  2389            
  2390            
  2391            *///////////////////////////////////////////////////////////
  2392            *                    RUNLIB INITIALISATION
  2393            *///////////////////////////////////////////////////////////
  2394            
  2395            * RUNLIB () ..:
  2396            ************************************************************
  2397            *  RUNLIB - Runtime library initalisation
  2398            ************************************************************
  2399            *  B  @RUNLIB
  2400            *-----------------------------------------------------------
  2401            *  REMARKS
  2402            *  If R1 in WS1 equals >FFFF we return to the TI title scree
  2403            *  after clearing scratchpad memory. 
  2404            *  Use 'B @RUNLI1' to exit your program.
  2405            ********@*****@*********************@***********************
  2406 09A6 04E0  RUNLIB  CLR   @>8302                ; Reset exit flag (R1 in
       09A8 8302 
  2407            *-----------------------------------------------------------
  2408            * Alternative entry point
  2409            *-----------------------------------------------------------
  2410 09AA 0300  RUNLI1  LIMI  0                     ; Turn off interrupts
       09AC 0000 
  2411 09AE 02E0          LWPI  WS1                   ; Activate workspace 1
       09B0 8300 
  2412 09B2 C0E0          MOV   @>83C0,R3             ; Get random seed from O
       09B4 83C0 
  2413            *-----------------------------------------------------------
  2414            * Clear scratch-pad memory from R4 upwards
  2415            *-----------------------------------------------------------
  2416 09B6 0202  RUNLI2  LI    R2,>8308
       09B8 8308 
  2417 09BA 04F2  RUNLI3  CLR   *R2+                  ; Clear scratchpad >8306
  2418 09BC 0282          CI    R2,>8400
       09BE 8400 
  2419 09C0 16FC          JNE   RUNLI3        
  2420            *-----------------------------------------------------------
  2421            * Exit to TI-99/4A title screen ?
  2422            *-----------------------------------------------------------
  2423 09C2 0281          CI    R1,>FFFF              ; Exit flag set ?
       09C4 FFFF 
  2424 09C6 1602          JNE   RUNLI4                ; No, continue
  2425 09C8 0420          BLWP  @0                    ; Yes, bye bye

 Xa99 Cross Assembler
VERSION 1.2/A                                                PAGE 0049
       09CA 0000 
  2426            *-----------------------------------------------------------
  2427            * Determine if VDP is PAL or NTSC 
  2428            *-----------------------------------------------------------
  2429 09CC C803  RUNLI4  MOV   R3,@WAUX1             ; Store random seed
       09CE 833C 
  2430 09D0 04C1          CLR   R1                    ; Reset counter
  2431 09D2 0202          LI    R2,10                 ; We test 10 times
       09D4 000A 
  2432 09D6 C0E0  RUNLI5  MOV   @VDPS,R3
       09D8 8802 
  2433 09DA 20E0          COC   @WBIT0,R3             ; Interupt flag set ?
       09DC 000A'
  2434 09DE 1302          JEQ   RUNLI6
  2435 09E0 0581          INC   R1                    ; Increase counter
  2436 09E2 10F9          JMP   RUNLI5
  2437 09E4 0602  RUNLI6  DEC   R2                    ; Next test
  2438 09E6 16F7          JNE   RUNLI5
  2439 09E8 0281          CI    R1,>1250              ; Max for NTSC reached ?
       09EA 1250 
  2440 09EC 1202          JLE   RUNLI7                ; No, so it must be NTSC
  2441 09EE 026C          ORI   CONFIG,PALON          ; Yes, it must be PAL, s
       09F0 2000 
  2442            *-----------------------------------------------------------
  2443            * Prepare tight loop
  2444            *-----------------------------------------------------------
  2445 09F2 06A0  RUNLI7  BL    @CPYM2M
       09F4 00A4'
  2446 09F6 004E'         DATA  MCCODE,MCLOOP+2,6     ; Copy machine code to s
       09F8 8322 
       09FA 0006 
  2447            *-----------------------------------------------------------
  2448            * Determine TI-99/4A operating system version
  2449            *-----------------------------------------------------------
  2450 09FC 06A0          BL    @CPYG2M               ; Read GROM >0480 into T
       09FE 0136'
  2451 0A00 0480          DATA  >0480,R3HB,2        
       0A02 8306 
       0A04 0002 
  2452 0A06 8803          C     R3,@TMP004            ; Check for TI-99/4
       0A08 0A60'
  2453 0A0A 1304          JEQ   RUNLI8
  2454 0A0C 8803          C     R3,@TMP005            ; Check for TI-99/4A V2.
       0A0E 0A62'
  2455 0A10 1303          JEQ   RUNLI9
  2456 0A12 1004          JMP   RUNLIA                ; It's a TI-99/4A v1
  2457            *-----------------------------------------------------------
  2458            *    It's a TI-99/4 .... PANIC !
  2459            *-----------------------------------------------------------
  2460 0A14 0701  RUNLI8  SETO  R1                    ; Set reset flag
  2461 0A16 10C9          JMP   RUNLI1                ; Bye bye
  2462            *-----------------------------------------------------------
  2463            *    It's a TI-99/4A v2.2
  2464            *-----------------------------------------------------------
  2465 0A18 026C  RUNLI9  ORI   CONFIG,V22OS          ; Set V2.2 flag        
       0A1A 0020 
  2466            *-----------------------------------------------------------
  2467            * Initialize registers, memory, ...
  2468            *-----------------------------------------------------------

 Xa99 Cross Assembler
VERSION 1.2/A                                                PAGE 0050
  2469 0A1C 04C1  RUNLIA  CLR   R1
  2470 0A1E 04C2          CLR   R2
  2471 0A20 04C3          CLR   R3
  2472 0A22 0209          LI    STACK,>8400           ; Set stack
       0A24 8400 
  2473 0A26 020F          LI    R15,VDPW              ; Set VDP write address
       0A28 8C00 
  2474 0A2A 06A0          BL    @MUTE                 ; Mute sound generators 
       0A2C 0640'
  2475            *-----------------------------------------------------------
  2476            * Setup video memory
  2477            *-----------------------------------------------------------
  2478 0A2E 06A0          BL    @VIDTAB               ; Load video mode table 
       0A30 0202'
  2479 0A32 0000          DATA  SPVMOD                ; See VIDTAB for details
*****  UNDEFINED SYMBOL - 2479
  2480 0A34 06A0          BL    @FILV
       0A36 007C'
  2481 0A38 0000          DATA  >0000,>00,16000       ; Clear VDP memory 
       0A3A 0000 
       0A3C 3E80 
  2482 0A3E 06A0          BL    @FILV
       0A40 007C'
  2483 0A42 0380          DATA  >0380,SPFCLR,16       ; Load color table
       0A44 0000 
       0A46 0010 
*****  UNDEFINED SYMBOL - 2483
  2484            *-----------------------------------------------------------
  2485            * Load font
  2486            *-----------------------------------------------------------
  2487 0A48 0204          LI    TMP0,SPFONT           ; Get font option
       0A4A 0000 
*****  UNDEFINED SYMBOL - 2487
  2488 0A4C 0544          INV   TMP0                  ; NOFONT (>FFFF) specifi
  2489 0A4E 1304          JEQ   RUNLIC                ; Yes, skip it
  2490 0A50 06A0          BL    @LDFNT
       0A52 033C'
  2491 0A54 0900          DATA  >0900,SPFONT          ; Load specified font   
       0A56 0000 
*****  UNDEFINED SYMBOL - 2491
  2492            *-----------------------------------------------------------
  2493            * Branch to main program
  2494            *-----------------------------------------------------------
  2495 0A58 026C  RUNLIC  ORI   CONFIG,ENKNL          ; Enable kernel thread  
       0A5A 0040 
  2496 0A5C 0460          B     @MAIN                 ; Give control to main p
       0A5E 0000 
*****  UNDEFINED SYMBOL - 2496
  2497 0A60 48FC  TMP004  DATA  >48FC                 ; TI-99/4   1979
  2498 0A62 5632  TMP005  DATA  >5632                 ; TI-99/4A  1983  V2.2
  2499            *       DATA  >0A01                 ; TI-99/4A  1981  V1    
  2500            * :..
  2501                    
  2502                   END
*****  END ASSUMED - 2502
  0008 ERRORS
